
electroclave.elf:     file format elf32-avr32

Sections:
Idx Name          Size      VMA       LMA       File off  Algn
  0 .reset        00002008  80000000  80000000  00000400  2**2
                  CONTENTS, ALLOC, LOAD, READONLY, CODE
  1 .rela.got     00000000  80002008  80002008  00002408  2**2
                  CONTENTS, ALLOC, LOAD, READONLY, DATA
  2 .text         00003a20  80002008  80002008  00002408  2**2
                  CONTENTS, ALLOC, LOAD, READONLY, CODE
  3 .exception    00000200  80005c00  80005c00  00006000  2**9
                  CONTENTS, ALLOC, LOAD, READONLY, CODE
  4 .rodata       000003f8  80005e00  80005e00  00006200  2**2
                  CONTENTS, ALLOC, LOAD, READONLY, DATA
  5 .dalign       00000004  00000004  00000004  00000000  2**0
                  ALLOC
  6 .data         000000ac  00000008  800061f8  00006808  2**2
                  CONTENTS, ALLOC, LOAD, DATA
  7 .balign       00000004  000000b4  800062a4  000068b4  2**0
                  ALLOC
  8 .bss          00000aa0  000000b8  000000b8  00000000  2**2
                  ALLOC
  9 .heap         0000e4a8  00000b58  00000b58  00000000  2**0
                  ALLOC
 10 .comment      00000030  00000000  00000000  000068b4  2**0
                  CONTENTS, READONLY
 11 .debug_aranges 00000060  00000000  00000000  000068e4  2**0
                  CONTENTS, READONLY, DEBUGGING
 12 .debug_pubnames 0000005a  00000000  00000000  00006944  2**0
                  CONTENTS, READONLY, DEBUGGING
 13 .debug_info   00000727  00000000  00000000  0000699e  2**0
                  CONTENTS, READONLY, DEBUGGING
 14 .debug_abbrev 0000027c  00000000  00000000  000070c5  2**0
                  CONTENTS, READONLY, DEBUGGING
 15 .debug_line   0000055b  00000000  00000000  00007341  2**0
                  CONTENTS, READONLY, DEBUGGING
 16 .debug_frame  00001cac  00000000  00000000  0000789c  2**2
                  CONTENTS, READONLY, DEBUGGING
 17 .debug_str    000002a1  00000000  00000000  00009548  2**0
                  CONTENTS, READONLY, DEBUGGING
 18 .debug_loc    000007b8  00000000  00000000  000097e9  2**0
                  CONTENTS, READONLY, DEBUGGING
 19 .stack        00001000  0000f000  0000f000  00000000  2**0
                  ALLOC
 20 .flash_nvram0 000003c0  8007f000  800062a4  00006c00  2**0
                  ALLOC
 21 .flash_nvram1 000003c0  8007f800  8007f3c0  00006c00  2**0
                  ALLOC
 22 .debug_ranges 000000a8  00000000  00000000  00009fa1  2**0
                  CONTENTS, READONLY, DEBUGGING

Disassembly of section .reset:

80000000 <_start>:
80000000:	fe cf c8 4c 	sub	pc,pc,-14260

80000004 <_trampoline>:
80000004:	e0 8f 10 00 	bral	80002004 <program_start>
	...

80002004 <program_start>:
80002004:	fe cf e8 50 	sub	pc,pc,-6064

Disassembly of section .text:

80002008 <SetSpeed>:
80002008:	d4 31       	pushm	r0-r7,lr
8000200a:	e0 6e 02 b4 	mov	lr,692
8000200e:	e0 64 02 b8 	mov	r4,696
80002012:	e0 65 02 c0 	mov	r5,704
80002016:	e0 67 02 b0 	mov	r7,688
8000201a:	e0 68 02 cc 	mov	r8,716
8000201e:	e0 63 02 d4 	mov	r3,724
80002022:	e0 66 02 c4 	mov	r6,708
80002026:	e0 6b 02 c8 	mov	r11,712
8000202a:	e0 6a 02 d0 	mov	r10,720
8000202e:	e0 69 02 bc 	mov	r9,700
80002032:	58 0c       	cp.w	r12,0
80002034:	c1 70       	breq	80002062 <SetSpeed+0x5a>
80002036:	30 6c       	mov	r12,6
80002038:	9d 0c       	st.w	lr[0x0],r12
8000203a:	34 0c       	mov	r12,64
8000203c:	89 0c       	st.w	r4[0x0],r12
8000203e:	33 cc       	mov	r12,60
80002040:	8b 0c       	st.w	r5[0x0],r12
80002042:	30 ac       	mov	r12,10
80002044:	8f 0c       	st.w	r7[0x0],r12
80002046:	30 9c       	mov	r12,9
80002048:	91 0c       	st.w	r8[0x0],r12
8000204a:	33 78       	mov	r8,55
8000204c:	87 08       	st.w	r3[0x0],r8
8000204e:	30 08       	mov	r8,0
80002050:	8d 08       	st.w	r6[0x0],r8
80002052:	e0 68 01 e0 	mov	r8,480
80002056:	97 08       	st.w	r11[0x0],r8
80002058:	34 68       	mov	r8,70
8000205a:	95 08       	st.w	r10[0x0],r8
8000205c:	e0 68 01 9a 	mov	r8,410
80002060:	c1 08       	rjmp	80002080 <SetSpeed+0x78>
80002062:	91 0c       	st.w	r8[0x0],r12
80002064:	30 78       	mov	r8,7
80002066:	87 08       	st.w	r3[0x0],r8
80002068:	89 08       	st.w	r4[0x0],r8
8000206a:	8b 08       	st.w	r5[0x0],r8
8000206c:	30 28       	mov	r8,2
8000206e:	8d 08       	st.w	r6[0x0],r8
80002070:	8f 08       	st.w	r7[0x0],r8
80002072:	30 18       	mov	r8,1
80002074:	9d 08       	st.w	lr[0x0],r8
80002076:	34 68       	mov	r8,70
80002078:	97 08       	st.w	r11[0x0],r8
8000207a:	30 88       	mov	r8,8
8000207c:	95 08       	st.w	r10[0x0],r8
8000207e:	32 88       	mov	r8,40
80002080:	93 08       	st.w	r9[0x0],r8
80002082:	d8 32       	popm	r0-r7,pc

80002084 <sample_line>:
80002084:	d4 21       	pushm	r4-r7,lr
80002086:	30 48       	mov	r8,4
80002088:	f0 0c 18 00 	cp.b	r12,r8
8000208c:	e0 88 00 04 	brls	80002094 <sample_line+0x10>
80002090:	30 07       	mov	r7,0
80002092:	c0 58       	rjmp	8000209c <sample_line+0x18>
80002094:	fe c8 c2 94 	sub	r8,pc,-15724
80002098:	f0 0c 07 07 	ld.ub	r7,r8[r12]
8000209c:	30 0b       	mov	r11,0
8000209e:	0e 9c       	mov	r12,r7
800020a0:	e0 a0 07 2c 	rcall	80002ef8 <gpio_configure_pin>
800020a4:	0e 9c       	mov	r12,r7
800020a6:	e0 a0 07 cc 	rcall	8000303e <gpio_get_pin_value>
800020aa:	30 1b       	mov	r11,1
800020ac:	18 96       	mov	r6,r12
800020ae:	0e 9c       	mov	r12,r7
800020b0:	e0 a0 07 24 	rcall	80002ef8 <gpio_configure_pin>
800020b4:	0c 9c       	mov	r12,r6
800020b6:	d8 22       	popm	r4-r7,pc

800020b8 <release_the_bus>:
800020b8:	d4 01       	pushm	lr
800020ba:	30 48       	mov	r8,4
800020bc:	f0 0c 18 00 	cp.b	r12,r8
800020c0:	e0 88 00 04 	brls	800020c8 <release_the_bus+0x10>
800020c4:	30 0c       	mov	r12,0
800020c6:	c0 58       	rjmp	800020d0 <release_the_bus+0x18>
800020c8:	fe c8 c2 c8 	sub	r8,pc,-15672
800020cc:	f0 0c 07 0c 	ld.ub	r12,r8[r12]
800020d0:	e0 a0 07 c2 	rcall	80003054 <gpio_set_pin_high>
800020d4:	d8 02       	popm	pc
800020d6:	d7 03       	nop

800020d8 <drive_DQ_low>:
800020d8:	d4 01       	pushm	lr
800020da:	30 48       	mov	r8,4
800020dc:	f0 0c 18 00 	cp.b	r12,r8
800020e0:	e0 88 00 04 	brls	800020e8 <drive_DQ_low+0x10>
800020e4:	30 0c       	mov	r12,0
800020e6:	c0 58       	rjmp	800020f0 <drive_DQ_low+0x18>
800020e8:	fe c8 c2 e8 	sub	r8,pc,-15640
800020ec:	f0 0c 07 0c 	ld.ub	r12,r8[r12]
800020f0:	e0 a0 07 bc 	rcall	80003068 <gpio_set_pin_low>
800020f4:	d8 02       	popm	pc
800020f6:	d7 03       	nop

800020f8 <OWReadBit>:
800020f8:	d4 21       	pushm	r4-r7,lr
800020fa:	20 1d       	sub	sp,4
800020fc:	18 97       	mov	r7,r12
800020fe:	ce df       	rcall	800020d8 <drive_DQ_low>
80002100:	ee 78 42 40 	mov	r8,1000000
80002104:	e0 6a 02 b4 	mov	r10,692
80002108:	30 09       	mov	r9,0
8000210a:	74 0b       	ld.w	r11,r10[0x0]
8000210c:	ee 74 42 3f 	mov	r4,999999
80002110:	30 05       	mov	r5,0
80002112:	e0 6a 12 00 	mov	r10,4608
80002116:	ea 1a 00 7a 	orh	r10,0x7a
8000211a:	f6 0a 06 4a 	mulu.d	r10,r11,r10
8000211e:	08 0a       	add	r10,r4
80002120:	f6 05 00 4b 	adc	r11,r11,r5
80002124:	e0 a0 1a 75 	rcall	8000560e <__avr32_udiv64>
80002128:	e1 b8 00 42 	mfsr	r8,0x108
8000212c:	f0 0a 00 0a 	add	r10,r8,r10
80002130:	e1 b9 00 42 	mfsr	r9,0x108
80002134:	14 38       	cp.w	r8,r10
80002136:	e0 88 00 05 	brls	80002140 <OWReadBit+0x48>
8000213a:	10 39       	cp.w	r9,r8
8000213c:	cf a2       	brcc	80002130 <OWReadBit+0x38>
8000213e:	c0 38       	rjmp	80002144 <OWReadBit+0x4c>
80002140:	10 39       	cp.w	r9,r8
80002142:	c2 13       	brcs	80002184 <OWReadBit+0x8c>
80002144:	14 39       	cp.w	r9,r10
80002146:	e0 8b 00 1f 	brhi	80002184 <OWReadBit+0x8c>
8000214a:	cf 3b       	rjmp	80002130 <OWReadBit+0x38>
8000214c:	e1 b9 00 42 	mfsr	r9,0x108
80002150:	14 38       	cp.w	r8,r10
80002152:	e0 88 00 05 	brls	8000215c <OWReadBit+0x64>
80002156:	10 39       	cp.w	r9,r8
80002158:	cf a2       	brcc	8000214c <OWReadBit+0x54>
8000215a:	c0 38       	rjmp	80002160 <OWReadBit+0x68>
8000215c:	10 39       	cp.w	r9,r8
8000215e:	c2 f3       	brcs	800021bc <OWReadBit+0xc4>
80002160:	14 39       	cp.w	r9,r10
80002162:	e0 8b 00 2d 	brhi	800021bc <OWReadBit+0xc4>
80002166:	cf 3b       	rjmp	8000214c <OWReadBit+0x54>
80002168:	e1 b9 00 42 	mfsr	r9,0x108
8000216c:	14 38       	cp.w	r8,r10
8000216e:	e0 88 00 05 	brls	80002178 <OWReadBit+0x80>
80002172:	10 39       	cp.w	r9,r8
80002174:	cf a2       	brcc	80002168 <OWReadBit+0x70>
80002176:	c0 38       	rjmp	8000217c <OWReadBit+0x84>
80002178:	10 39       	cp.w	r9,r8
8000217a:	c3 e3       	brcs	800021f6 <OWReadBit+0xfe>
8000217c:	14 39       	cp.w	r9,r10
8000217e:	e0 8b 00 3c 	brhi	800021f6 <OWReadBit+0xfe>
80002182:	cf 3b       	rjmp	80002168 <OWReadBit+0x70>
80002184:	0e 9c       	mov	r12,r7
80002186:	c9 9f       	rcall	800020b8 <release_the_bus>
80002188:	e0 6a 02 cc 	mov	r10,716
8000218c:	ee 78 42 40 	mov	r8,1000000
80002190:	74 05       	ld.w	r5,r10[0x0]
80002192:	e0 6a 12 00 	mov	r10,4608
80002196:	ea 1a 00 7a 	orh	r10,0x7a
8000219a:	30 09       	mov	r9,0
8000219c:	ea 0a 06 44 	mulu.d	r4,r5,r10
800021a0:	30 0b       	mov	r11,0
800021a2:	ee 7a 42 3f 	mov	r10,999999
800021a6:	e8 0a 00 0a 	add	r10,r4,r10
800021aa:	ea 0b 00 4b 	adc	r11,r5,r11
800021ae:	e0 a0 1a 30 	rcall	8000560e <__avr32_udiv64>
800021b2:	e1 b8 00 42 	mfsr	r8,0x108
800021b6:	f0 0a 00 0a 	add	r10,r8,r10
800021ba:	cc 9b       	rjmp	8000214c <OWReadBit+0x54>
800021bc:	0e 9c       	mov	r12,r7
800021be:	c6 3f       	rcall	80002084 <sample_line>
800021c0:	e0 68 02 d4 	mov	r8,724
800021c4:	70 0b       	ld.w	r11,r8[0x0]
800021c6:	e0 68 12 00 	mov	r8,4608
800021ca:	ea 18 00 7a 	orh	r8,0x7a
800021ce:	f6 08 06 4a 	mulu.d	r10,r11,r8
800021d2:	ee 78 42 3f 	mov	r8,999999
800021d6:	30 09       	mov	r9,0
800021d8:	10 0a       	add	r10,r8
800021da:	f6 09 00 4b 	adc	r11,r11,r9
800021de:	ee 78 42 40 	mov	r8,1000000
800021e2:	30 09       	mov	r9,0
800021e4:	50 0c       	stdsp	sp[0x0],r12
800021e6:	e0 a0 1a 14 	rcall	8000560e <__avr32_udiv64>
800021ea:	e1 b8 00 42 	mfsr	r8,0x108
800021ee:	f0 0a 00 0a 	add	r10,r8,r10
800021f2:	40 0c       	lddsp	r12,sp[0x0]
800021f4:	cb ab       	rjmp	80002168 <OWReadBit+0x70>
800021f6:	2f fd       	sub	sp,-4
800021f8:	d8 22       	popm	r4-r7,pc
800021fa:	d7 03       	nop

800021fc <OWReadByte>:
800021fc:	d4 21       	pushm	r4-r7,lr
800021fe:	30 07       	mov	r7,0
80002200:	18 95       	mov	r5,r12
80002202:	0e 96       	mov	r6,r7
80002204:	a1 57       	asr	r7,0x1
80002206:	2f f6       	sub	r6,-1
80002208:	0a 9c       	mov	r12,r5
8000220a:	c7 7f       	rcall	800020f8 <OWReadBit>
8000220c:	c0 20       	breq	80002210 <OWReadByte+0x14>
8000220e:	a7 b7       	sbr	r7,0x7
80002210:	58 86       	cp.w	r6,8
80002212:	cf 91       	brne	80002204 <OWReadByte+0x8>
80002214:	0e 9c       	mov	r12,r7
80002216:	d8 22       	popm	r4-r7,pc

80002218 <OWWriteBit>:
80002218:	d4 21       	pushm	r4-r7,lr
8000221a:	18 97       	mov	r7,r12
8000221c:	58 0b       	cp.w	r11,0
8000221e:	c3 60       	breq	8000228a <OWWriteBit+0x72>
80002220:	c5 cf       	rcall	800020d8 <drive_DQ_low>
80002222:	ee 78 42 40 	mov	r8,1000000
80002226:	e0 6a 02 b4 	mov	r10,692
8000222a:	30 09       	mov	r9,0
8000222c:	74 0b       	ld.w	r11,r10[0x0]
8000222e:	ee 74 42 3f 	mov	r4,999999
80002232:	30 05       	mov	r5,0
80002234:	e0 6a 12 00 	mov	r10,4608
80002238:	ea 1a 00 7a 	orh	r10,0x7a
8000223c:	f6 0a 06 4a 	mulu.d	r10,r11,r10
80002240:	08 0a       	add	r10,r4
80002242:	f6 05 00 4b 	adc	r11,r11,r5
80002246:	e0 a0 19 e4 	rcall	8000560e <__avr32_udiv64>
8000224a:	e1 b8 00 42 	mfsr	r8,0x108
8000224e:	f0 0a 00 0a 	add	r10,r8,r10
80002252:	e1 b9 00 42 	mfsr	r9,0x108
80002256:	14 38       	cp.w	r8,r10
80002258:	e0 88 00 05 	brls	80002262 <OWWriteBit+0x4a>
8000225c:	10 39       	cp.w	r9,r8
8000225e:	cf a2       	brcc	80002252 <OWWriteBit+0x3a>
80002260:	c0 38       	rjmp	80002266 <OWWriteBit+0x4e>
80002262:	10 39       	cp.w	r9,r8
80002264:	c4 c3       	brcs	800022fc <OWWriteBit+0xe4>
80002266:	14 39       	cp.w	r9,r10
80002268:	e0 8b 00 4a 	brhi	800022fc <OWWriteBit+0xe4>
8000226c:	cf 3b       	rjmp	80002252 <OWWriteBit+0x3a>
8000226e:	e1 b9 00 42 	mfsr	r9,0x108
80002272:	14 38       	cp.w	r8,r10
80002274:	e0 88 00 05 	brls	8000227e <OWWriteBit+0x66>
80002278:	10 39       	cp.w	r9,r8
8000227a:	cf a2       	brcc	8000226e <OWWriteBit+0x56>
8000227c:	c0 38       	rjmp	80002282 <OWWriteBit+0x6a>
8000227e:	10 39       	cp.w	r9,r8
80002280:	c7 53       	brcs	8000236a <OWWriteBit+0x152>
80002282:	14 39       	cp.w	r9,r10
80002284:	e0 8b 00 73 	brhi	8000236a <OWWriteBit+0x152>
80002288:	cf 3b       	rjmp	8000226e <OWWriteBit+0x56>
8000228a:	c2 7f       	rcall	800020d8 <drive_DQ_low>
8000228c:	e0 6a 02 c0 	mov	r10,704
80002290:	ee 78 42 40 	mov	r8,1000000
80002294:	74 05       	ld.w	r5,r10[0x0]
80002296:	e0 6a 12 00 	mov	r10,4608
8000229a:	ea 1a 00 7a 	orh	r10,0x7a
8000229e:	30 09       	mov	r9,0
800022a0:	ea 0a 06 44 	mulu.d	r4,r5,r10
800022a4:	30 0b       	mov	r11,0
800022a6:	ee 7a 42 3f 	mov	r10,999999
800022aa:	e8 0a 00 0a 	add	r10,r4,r10
800022ae:	ea 0b 00 4b 	adc	r11,r5,r11
800022b2:	e0 a0 19 ae 	rcall	8000560e <__avr32_udiv64>
800022b6:	e1 b8 00 42 	mfsr	r8,0x108
800022ba:	f0 0a 00 0a 	add	r10,r8,r10
800022be:	e1 b9 00 42 	mfsr	r9,0x108
800022c2:	14 38       	cp.w	r8,r10
800022c4:	e0 88 00 05 	brls	800022ce <OWWriteBit+0xb6>
800022c8:	10 39       	cp.w	r9,r8
800022ca:	cf a2       	brcc	800022be <OWWriteBit+0xa6>
800022cc:	c0 38       	rjmp	800022d2 <OWWriteBit+0xba>
800022ce:	10 39       	cp.w	r9,r8
800022d0:	c3 23       	brcs	80002334 <OWWriteBit+0x11c>
800022d2:	14 39       	cp.w	r9,r10
800022d4:	e0 8b 00 30 	brhi	80002334 <OWWriteBit+0x11c>
800022d8:	cf 3b       	rjmp	800022be <OWWriteBit+0xa6>
800022da:	e1 b9 00 42 	mfsr	r9,0x108
800022de:	14 38       	cp.w	r8,r10
800022e0:	e0 88 00 08 	brls	800022f0 <OWWriteBit+0xd8>
800022e4:	10 39       	cp.w	r9,r8
800022e6:	cf a2       	brcc	800022da <OWWriteBit+0xc2>
800022e8:	14 39       	cp.w	r9,r10
800022ea:	e0 8b 00 40 	brhi	8000236a <OWWriteBit+0x152>
800022ee:	cf 6b       	rjmp	800022da <OWWriteBit+0xc2>
800022f0:	10 39       	cp.w	r9,r8
800022f2:	c3 c3       	brcs	8000236a <OWWriteBit+0x152>
800022f4:	14 39       	cp.w	r9,r10
800022f6:	fe 98 ff f2 	brls	800022da <OWWriteBit+0xc2>
800022fa:	d8 22       	popm	r4-r7,pc
800022fc:	0e 9c       	mov	r12,r7
800022fe:	cd de       	rcall	800020b8 <release_the_bus>
80002300:	ee 78 42 40 	mov	r8,1000000
80002304:	e0 6a 02 b8 	mov	r10,696
80002308:	30 07       	mov	r7,0
8000230a:	74 0b       	ld.w	r11,r10[0x0]
8000230c:	30 09       	mov	r9,0
8000230e:	ee 76 42 3f 	mov	r6,999999
80002312:	e0 6a 12 00 	mov	r10,4608
80002316:	ea 1a 00 7a 	orh	r10,0x7a
8000231a:	f6 0a 06 4a 	mulu.d	r10,r11,r10
8000231e:	0c 0a       	add	r10,r6
80002320:	f6 07 00 4b 	adc	r11,r11,r7
80002324:	e0 a0 19 75 	rcall	8000560e <__avr32_udiv64>
80002328:	e1 b8 00 42 	mfsr	r8,0x108
8000232c:	f0 0a 00 0a 	add	r10,r8,r10
80002330:	c9 fb       	rjmp	8000226e <OWWriteBit+0x56>
80002332:	d7 03       	nop
80002334:	0e 9c       	mov	r12,r7
80002336:	cc 1e       	rcall	800020b8 <release_the_bus>
80002338:	ee 78 42 40 	mov	r8,1000000
8000233c:	e0 6a 02 b0 	mov	r10,688
80002340:	30 07       	mov	r7,0
80002342:	74 0b       	ld.w	r11,r10[0x0]
80002344:	30 09       	mov	r9,0
80002346:	ee 76 42 3f 	mov	r6,999999
8000234a:	e0 6a 12 00 	mov	r10,4608
8000234e:	ea 1a 00 7a 	orh	r10,0x7a
80002352:	f6 0a 06 4a 	mulu.d	r10,r11,r10
80002356:	0c 0a       	add	r10,r6
80002358:	f6 07 00 4b 	adc	r11,r11,r7
8000235c:	e0 a0 19 59 	rcall	8000560e <__avr32_udiv64>
80002360:	e1 b8 00 42 	mfsr	r8,0x108
80002364:	f0 0a 00 0a 	add	r10,r8,r10
80002368:	cb 9b       	rjmp	800022da <OWWriteBit+0xc2>
8000236a:	d8 22       	popm	r4-r7,pc

8000236c <OWWriteByte>:
8000236c:	d4 21       	pushm	r4-r7,lr
8000236e:	30 07       	mov	r7,0
80002370:	18 95       	mov	r5,r12
80002372:	16 96       	mov	r6,r11
80002374:	2f f7       	sub	r7,-1
80002376:	f7 d6 c0 01 	bfextu	r11,r6,0x0,0x1
8000237a:	0a 9c       	mov	r12,r5
8000237c:	a1 56       	asr	r6,0x1
8000237e:	c4 df       	rcall	80002218 <OWWriteBit>
80002380:	58 87       	cp.w	r7,8
80002382:	cf 91       	brne	80002374 <OWWriteByte+0x8>
80002384:	d8 22       	popm	r4-r7,pc
80002386:	d7 03       	nop

80002388 <OWTouchReset>:
80002388:	d4 21       	pushm	r4-r7,lr
8000238a:	20 1d       	sub	sp,4
8000238c:	e0 68 02 b4 	mov	r8,692
80002390:	70 0b       	ld.w	r11,r8[0x0]
80002392:	e0 68 12 00 	mov	r8,4608
80002396:	ea 18 00 7a 	orh	r8,0x7a
8000239a:	f6 08 06 4a 	mulu.d	r10,r11,r8
8000239e:	ee 78 42 3f 	mov	r8,999999
800023a2:	30 09       	mov	r9,0
800023a4:	10 0a       	add	r10,r8
800023a6:	f6 09 00 4b 	adc	r11,r11,r9
800023aa:	ee 78 42 40 	mov	r8,1000000
800023ae:	18 97       	mov	r7,r12
800023b0:	30 09       	mov	r9,0
800023b2:	e0 a0 19 2e 	rcall	8000560e <__avr32_udiv64>
800023b6:	e1 b8 00 42 	mfsr	r8,0x108
800023ba:	f0 0a 00 0a 	add	r10,r8,r10
800023be:	e1 b9 00 42 	mfsr	r9,0x108
800023c2:	14 38       	cp.w	r8,r10
800023c4:	e0 88 00 05 	brls	800023ce <OWTouchReset+0x46>
800023c8:	10 39       	cp.w	r9,r8
800023ca:	cf a2       	brcc	800023be <OWTouchReset+0x36>
800023cc:	c0 38       	rjmp	800023d2 <OWTouchReset+0x4a>
800023ce:	10 39       	cp.w	r9,r8
800023d0:	c2 f3       	brcs	8000242e <OWTouchReset+0xa6>
800023d2:	14 39       	cp.w	r9,r10
800023d4:	e0 8b 00 2d 	brhi	8000242e <OWTouchReset+0xa6>
800023d8:	cf 3b       	rjmp	800023be <OWTouchReset+0x36>
800023da:	e1 b9 00 42 	mfsr	r9,0x108
800023de:	14 38       	cp.w	r8,r10
800023e0:	e0 88 00 05 	brls	800023ea <OWTouchReset+0x62>
800023e4:	10 39       	cp.w	r9,r8
800023e6:	cf a2       	brcc	800023da <OWTouchReset+0x52>
800023e8:	c0 38       	rjmp	800023ee <OWTouchReset+0x66>
800023ea:	10 39       	cp.w	r9,r8
800023ec:	c3 c3       	brcs	80002464 <OWTouchReset+0xdc>
800023ee:	14 39       	cp.w	r9,r10
800023f0:	e0 8b 00 3a 	brhi	80002464 <OWTouchReset+0xdc>
800023f4:	cf 3b       	rjmp	800023da <OWTouchReset+0x52>
800023f6:	e1 b9 00 42 	mfsr	r9,0x108
800023fa:	14 38       	cp.w	r8,r10
800023fc:	e0 88 00 05 	brls	80002406 <OWTouchReset+0x7e>
80002400:	10 39       	cp.w	r9,r8
80002402:	cf a2       	brcc	800023f6 <OWTouchReset+0x6e>
80002404:	c0 38       	rjmp	8000240a <OWTouchReset+0x82>
80002406:	10 39       	cp.w	r9,r8
80002408:	c4 a3       	brcs	8000249c <OWTouchReset+0x114>
8000240a:	14 39       	cp.w	r9,r10
8000240c:	e0 8b 00 48 	brhi	8000249c <OWTouchReset+0x114>
80002410:	cf 3b       	rjmp	800023f6 <OWTouchReset+0x6e>
80002412:	e1 b9 00 42 	mfsr	r9,0x108
80002416:	14 38       	cp.w	r8,r10
80002418:	e0 88 00 05 	brls	80002422 <OWTouchReset+0x9a>
8000241c:	10 39       	cp.w	r9,r8
8000241e:	cf a2       	brcc	80002412 <OWTouchReset+0x8a>
80002420:	c0 38       	rjmp	80002426 <OWTouchReset+0x9e>
80002422:	10 39       	cp.w	r9,r8
80002424:	c5 a3       	brcs	800024d8 <OWTouchReset+0x150>
80002426:	14 39       	cp.w	r9,r10
80002428:	e0 8b 00 58 	brhi	800024d8 <OWTouchReset+0x150>
8000242c:	cf 3b       	rjmp	80002412 <OWTouchReset+0x8a>
8000242e:	0e 9c       	mov	r12,r7
80002430:	c5 4e       	rcall	800020d8 <drive_DQ_low>
80002432:	ee 78 42 40 	mov	r8,1000000
80002436:	e0 6a 02 c8 	mov	r10,712
8000243a:	30 09       	mov	r9,0
8000243c:	74 0b       	ld.w	r11,r10[0x0]
8000243e:	ee 74 42 3f 	mov	r4,999999
80002442:	30 05       	mov	r5,0
80002444:	e0 6a 12 00 	mov	r10,4608
80002448:	ea 1a 00 7a 	orh	r10,0x7a
8000244c:	f6 0a 06 4a 	mulu.d	r10,r11,r10
80002450:	08 0a       	add	r10,r4
80002452:	f6 05 00 4b 	adc	r11,r11,r5
80002456:	e0 a0 18 dc 	rcall	8000560e <__avr32_udiv64>
8000245a:	e1 b8 00 42 	mfsr	r8,0x108
8000245e:	f0 0a 00 0a 	add	r10,r8,r10
80002462:	cb cb       	rjmp	800023da <OWTouchReset+0x52>
80002464:	0e 9c       	mov	r12,r7
80002466:	c2 9e       	rcall	800020b8 <release_the_bus>
80002468:	e0 6a 02 d0 	mov	r10,720
8000246c:	ee 78 42 40 	mov	r8,1000000
80002470:	74 05       	ld.w	r5,r10[0x0]
80002472:	e0 6a 12 00 	mov	r10,4608
80002476:	ea 1a 00 7a 	orh	r10,0x7a
8000247a:	30 09       	mov	r9,0
8000247c:	ea 0a 06 44 	mulu.d	r4,r5,r10
80002480:	30 0b       	mov	r11,0
80002482:	ee 7a 42 3f 	mov	r10,999999
80002486:	e8 0a 00 0a 	add	r10,r4,r10
8000248a:	ea 0b 00 4b 	adc	r11,r5,r11
8000248e:	e0 a0 18 c0 	rcall	8000560e <__avr32_udiv64>
80002492:	e1 b8 00 42 	mfsr	r8,0x108
80002496:	f0 0a 00 0a 	add	r10,r8,r10
8000249a:	ca eb       	rjmp	800023f6 <OWTouchReset+0x6e>
8000249c:	0e 9c       	mov	r12,r7
8000249e:	fe b0 fd f3 	rcall	80002084 <sample_line>
800024a2:	e0 68 02 bc 	mov	r8,700
800024a6:	70 0b       	ld.w	r11,r8[0x0]
800024a8:	e0 68 12 00 	mov	r8,4608
800024ac:	ea 18 00 7a 	orh	r8,0x7a
800024b0:	f6 08 06 4a 	mulu.d	r10,r11,r8
800024b4:	ee 78 42 3f 	mov	r8,999999
800024b8:	30 09       	mov	r9,0
800024ba:	10 0a       	add	r10,r8
800024bc:	f6 09 00 4b 	adc	r11,r11,r9
800024c0:	ee 78 42 40 	mov	r8,1000000
800024c4:	30 09       	mov	r9,0
800024c6:	50 0c       	stdsp	sp[0x0],r12
800024c8:	e0 a0 18 a3 	rcall	8000560e <__avr32_udiv64>
800024cc:	e1 b8 00 42 	mfsr	r8,0x108
800024d0:	f0 0a 00 0a 	add	r10,r8,r10
800024d4:	40 0c       	lddsp	r12,sp[0x0]
800024d6:	c9 eb       	rjmp	80002412 <OWTouchReset+0x8a>
800024d8:	2f fd       	sub	sp,-4
800024da:	d8 22       	popm	r4-r7,pc

800024dc <print_ecdbg>:
800024dc:	d4 01       	pushm	lr
800024de:	18 9b       	mov	r11,r12
800024e0:	fe 7c 28 00 	mov	r12,-55296
800024e4:	e0 a0 08 e0 	rcall	800036a4 <usart_write_line>
800024e8:	d8 02       	popm	pc
800024ea:	d7 03       	nop

800024ec <init_display_rs232_ex>:
800024ec:	d4 21       	pushm	r4-r7,lr
800024ee:	20 3d       	sub	sp,12
800024f0:	30 08       	mov	r8,0
800024f2:	fb 68 00 08 	st.b	sp[8],r8
800024f6:	ba 38       	st.h	sp[0x6],r8
800024f8:	30 88       	mov	r8,8
800024fa:	ba c8       	st.b	sp[0x4],r8
800024fc:	30 48       	mov	r8,4
800024fe:	16 97       	mov	r7,r11
80002500:	50 0c       	stdsp	sp[0x0],r12
80002502:	30 2b       	mov	r11,2
80002504:	ba d8       	st.b	sp[0x5],r8
80002506:	fe cc c6 ee 	sub	r12,pc,-14610
8000250a:	e0 a0 04 e7 	rcall	80002ed8 <gpio_enable_module>
8000250e:	0e 9a       	mov	r10,r7
80002510:	1a 9b       	mov	r11,sp
80002512:	fc 7c 14 00 	mov	r12,-191488
80002516:	e0 a0 08 ef 	rcall	800036f4 <usart_init_rs232>
8000251a:	2f dd       	sub	sp,-12
8000251c:	d8 22       	popm	r4-r7,pc
8000251e:	d7 03       	nop

80002520 <init_display_rs232>:
80002520:	d4 01       	pushm	lr
80002522:	18 9b       	mov	r11,r12
80002524:	e0 6c 12 c0 	mov	r12,4800
80002528:	ce 2f       	rcall	800024ec <init_display_rs232_ex>
8000252a:	d8 02       	popm	pc

8000252c <init_ecdbg_rs232_ex>:
8000252c:	d4 21       	pushm	r4-r7,lr
8000252e:	20 3d       	sub	sp,12
80002530:	30 08       	mov	r8,0
80002532:	fb 68 00 08 	st.b	sp[8],r8
80002536:	ba 38       	st.h	sp[0x6],r8
80002538:	30 88       	mov	r8,8
8000253a:	ba c8       	st.b	sp[0x4],r8
8000253c:	30 48       	mov	r8,4
8000253e:	16 97       	mov	r7,r11
80002540:	50 0c       	stdsp	sp[0x0],r12
80002542:	30 2b       	mov	r11,2
80002544:	ba d8       	st.b	sp[0x5],r8
80002546:	fe cc c7 3e 	sub	r12,pc,-14530
8000254a:	e0 a0 04 c7 	rcall	80002ed8 <gpio_enable_module>
8000254e:	0e 9a       	mov	r10,r7
80002550:	1a 9b       	mov	r11,sp
80002552:	fe 7c 28 00 	mov	r12,-55296
80002556:	e0 a0 08 cf 	rcall	800036f4 <usart_init_rs232>
8000255a:	2f dd       	sub	sp,-12
8000255c:	d8 22       	popm	r4-r7,pc
8000255e:	d7 03       	nop

80002560 <init_ecdbg_rs232>:
80002560:	d4 01       	pushm	lr
80002562:	18 9b       	mov	r11,r12
80002564:	e0 7c c2 00 	mov	r12,115200
80002568:	ce 2f       	rcall	8000252c <init_ecdbg_rs232_ex>
8000256a:	d8 02       	popm	pc

8000256c <adcifa_get_calibration_data>:
8000256c:	e0 69 02 04 	mov	r9,516
80002570:	ea 19 80 80 	orh	r9,0x8080
80002574:	e0 68 02 08 	mov	r8,520
80002578:	ea 18 80 80 	orh	r8,0x8080
8000257c:	72 0c       	ld.w	r12,r9[0x0]
8000257e:	72 0a       	ld.w	r10,r9[0x0]
80002580:	f9 dc c3 06 	bfextu	r12,r12,0x18,0x6
80002584:	70 09       	ld.w	r9,r8[0x0]
80002586:	f5 da c0 0f 	bfextu	r10,r10,0x0,0xf
8000258a:	70 08       	ld.w	r8,r8[0x0]
8000258c:	f3 d9 c0 0a 	bfextu	r9,r9,0x0,0xa
80002590:	f1 d8 c2 0a 	bfextu	r8,r8,0x10,0xa
80002594:	b6 6c       	st.h	r11[0xc],r12
80002596:	b6 5a       	st.h	r11[0xa],r10
80002598:	b6 79       	st.h	r11[0xe],r9
8000259a:	f7 58 00 10 	st.h	r11[16],r8
8000259e:	5e fc       	retal	r12

800025a0 <adcifa_configure>:
800025a0:	d4 21       	pushm	r4-r7,lr
800025a2:	17 ee       	ld.ub	lr,r11[0x6]
800025a4:	f7 37 00 08 	ld.ub	r7,r11[8]
800025a8:	a3 67       	lsl	r7,0x2
800025aa:	ef ee 10 37 	or	r7,r7,lr<<0x3
800025ae:	17 fe       	ld.ub	lr,r11[0x7]
800025b0:	ef ee 10 47 	or	r7,r7,lr<<0x4
800025b4:	17 ce       	ld.ub	lr,r11[0x4]
800025b6:	ef ee 10 57 	or	r7,r7,lr<<0x5
800025ba:	17 de       	ld.ub	lr,r11[0x5]
800025bc:	ef ee 10 77 	or	r7,r7,lr<<0x7
800025c0:	f7 3e 00 09 	ld.ub	lr,r11[9]
800025c4:	76 09       	ld.w	r9,r11[0x0]
800025c6:	ef ee 10 a7 	or	r7,r7,lr<<0xa
800025ca:	e0 6e 03 e8 	mov	lr,1000
800025ce:	f2 0e 0d 04 	divu	r4,r9,lr
800025d2:	a9 3e       	mul	lr,r4
800025d4:	fc 78 24 00 	mov	r8,-187392
800025d8:	a1 79       	lsl	r9,0x1
800025da:	e0 65 7d 00 	mov	r5,32000
800025de:	fc 05 0d 04 	divu	r4,lr,r5
800025e2:	ef e4 11 0e 	or	lr,r7,r4<<0x10
800025e6:	91 1e       	st.w	r8[0x4],lr
800025e8:	f4 09 0d 06 	divu	r6,r10,r9
800025ec:	0c 99       	mov	r9,r6
800025ee:	20 19       	sub	r9,1
800025f0:	f3 d9 c0 09 	bfextu	r9,r9,0x0,0x9
800025f4:	f9 49 00 44 	st.w	r12[68],r9
800025f8:	71 a9       	ld.w	r9,r8[0x68]
800025fa:	96 6a       	ld.sh	r10,r11[0xc]
800025fc:	e4 19 c0 ff 	andh	r9,0xc0ff
80002600:	b9 6a       	lsl	r10,0x18
80002602:	e6 1a 3f 00 	andh	r10,0x3f00,COH
80002606:	f5 e9 10 09 	or	r9,r10,r9
8000260a:	f1 49 00 68 	st.w	r8[104],r9
8000260e:	71 a9       	ld.w	r9,r8[0x68]
80002610:	96 5a       	ld.sh	r10,r11[0xa]
80002612:	e0 19 80 00 	andl	r9,0x8000
80002616:	f5 da c0 0f 	bfextu	r10,r10,0x0,0xf
8000261a:	f5 e9 10 09 	or	r9,r10,r9
8000261e:	f1 49 00 68 	st.w	r8[104],r9
80002622:	71 b9       	ld.w	r9,r8[0x6c]
80002624:	96 7a       	ld.sh	r10,r11[0xe]
80002626:	e0 19 fc 00 	andl	r9,0xfc00
8000262a:	f5 da c0 0a 	bfextu	r10,r10,0x0,0xa
8000262e:	f5 e9 10 09 	or	r9,r10,r9
80002632:	f1 49 00 6c 	st.w	r8[108],r9
80002636:	71 b9       	ld.w	r9,r8[0x6c]
80002638:	f7 0a 00 10 	ld.sh	r10,r11[16]
8000263c:	e4 19 fc 00 	andh	r9,0xfc00
80002640:	b1 6a       	lsl	r10,0x10
80002642:	e6 1a 03 ff 	andh	r10,0x3ff,COH
80002646:	f5 e9 10 09 	or	r9,r10,r9
8000264a:	f1 49 00 6c 	st.w	r8[108],r9
8000264e:	10 9a       	mov	r10,r8
80002650:	70 19       	ld.w	r9,r8[0x4]
80002652:	a1 a9       	sbr	r9,0x0
80002654:	91 19       	st.w	r8[0x4],r9
80002656:	74 28       	ld.w	r8,r10[0x8]
80002658:	ed b8 00 0e 	bld	r8,0xe
8000265c:	cf d1       	brne	80002656 <adcifa_configure+0xb6>
8000265e:	da 2a       	popm	r4-r7,pc,r12=1

80002660 <adcifa_configure_sequencer>:
80002660:	d4 21       	pushm	r4-r7,lr
80002662:	20 cd       	sub	sp,48
80002664:	30 06       	mov	r6,0
80002666:	30 07       	mov	r7,0
80002668:	fa e7 00 08 	st.d	sp[8],r6
8000266c:	fa e7 00 20 	st.d	sp[32],r6
80002670:	fa e7 00 28 	st.d	sp[40],r6
80002674:	fa e7 00 10 	st.d	sp[16],r6
80002678:	fa e7 00 18 	st.d	sp[24],r6
8000267c:	fa e7 00 00 	st.d	sp[0],r6
80002680:	58 0b       	cp.w	r11,0
80002682:	c0 70       	breq	80002690 <adcifa_configure_sequencer+0x30>
80002684:	30 18       	mov	r8,1
80002686:	f0 0b 18 00 	cp.b	r11,r8
8000268a:	e0 81 01 83 	brne	80002990 <adcifa_configure_sequencer+0x330>
8000268e:	cf 08       	rjmp	8000286e <adcifa_configure_sequencer+0x20e>
80002690:	15 97       	ld.ub	r7,r10[0x1]
80002692:	15 d8       	ld.ub	r8,r10[0x5]
80002694:	15 ac       	ld.ub	r12,r10[0x2]
80002696:	a9 6c       	lsl	r12,0x8
80002698:	f9 e7 10 cc 	or	r12,r12,r7<<0xc
8000269c:	15 e7       	ld.ub	r7,r10[0x6]
8000269e:	15 8b       	ld.ub	r11,r10[0x0]
800026a0:	0e 4c       	or	r12,r7
800026a2:	15 b7       	ld.ub	r7,r10[0x3]
800026a4:	15 ca       	ld.ub	r10,r10[0x4]
800026a6:	f9 e7 10 2c 	or	r12,r12,r7<<0x2
800026aa:	f9 ea 10 3a 	or	r10,r12,r10<<0x3
800026ae:	f5 e8 10 1a 	or	r10,r10,r8<<0x1
800026b2:	f6 c8 00 01 	sub	r8,r11,1
800026b6:	f5 e8 11 0a 	or	r10,r10,r8<<0x10
800026ba:	fc 78 24 00 	mov	r8,-187392
800026be:	91 5a       	st.w	r8[0x14],r10
800026c0:	fa c8 ff e0 	sub	r8,sp,-32
800026c4:	12 9a       	mov	r10,r9
800026c6:	f6 08 00 0c 	add	r12,r11,r8
800026ca:	c0 48       	rjmp	800026d2 <adcifa_configure_sequencer+0x72>
800026cc:	15 a7       	ld.ub	r7,r10[0x2]
800026ce:	2f da       	sub	r10,-3
800026d0:	10 c7       	st.b	r8++,r7
800026d2:	18 38       	cp.w	r8,r12
800026d4:	cf c1       	brne	800026cc <adcifa_configure_sequencer+0x6c>
800026d6:	fb 38 00 27 	ld.ub	r8,sp[39]
800026da:	fb 3a 00 26 	ld.ub	r10,sp[38]
800026de:	b9 6a       	lsl	r10,0x18
800026e0:	f5 e8 11 ca 	or	r10,r10,r8<<0x1c
800026e4:	fb 38 00 20 	ld.ub	r8,sp[32]
800026e8:	10 4a       	or	r10,r8
800026ea:	fb 38 00 25 	ld.ub	r8,sp[37]
800026ee:	f5 e8 11 4a 	or	r10,r10,r8<<0x14
800026f2:	fb 38 00 24 	ld.ub	r8,sp[36]
800026f6:	f5 e8 11 0a 	or	r10,r10,r8<<0x10
800026fa:	fb 38 00 23 	ld.ub	r8,sp[35]
800026fe:	f5 e8 10 ca 	or	r10,r10,r8<<0xc
80002702:	fb 38 00 22 	ld.ub	r8,sp[34]
80002706:	f5 e8 10 8a 	or	r10,r10,r8<<0x8
8000270a:	fb 38 00 21 	ld.ub	r8,sp[33]
8000270e:	f5 e8 10 4a 	or	r10,r10,r8<<0x4
80002712:	fc 78 24 00 	mov	r8,-187392
80002716:	fa cc ff f0 	sub	r12,sp,-16
8000271a:	91 7a       	st.w	r8[0x1c],r10
8000271c:	30 08       	mov	r8,0
8000271e:	1a 9a       	mov	r10,sp
80002720:	c0 98       	rjmp	80002732 <adcifa_configure_sequencer+0xd2>
80002722:	13 87       	ld.ub	r7,r9[0x0]
80002724:	f8 08 0b 07 	st.b	r12[r8],r7
80002728:	13 97       	ld.ub	r7,r9[0x1]
8000272a:	2f d9       	sub	r9,-3
8000272c:	f4 08 0b 07 	st.b	r10[r8],r7
80002730:	2f f8       	sub	r8,-1
80002732:	f6 08 18 00 	cp.b	r8,r11
80002736:	cf 63       	brcs	80002722 <adcifa_configure_sequencer+0xc2>
80002738:	fb 38 00 17 	ld.ub	r8,sp[23]
8000273c:	fb 39 00 16 	ld.ub	r9,sp[22]
80002740:	b1 69       	lsl	r9,0x10
80002742:	f3 e8 11 89 	or	r9,r9,r8<<0x18
80002746:	fb 38 00 14 	ld.ub	r8,sp[20]
8000274a:	10 49       	or	r9,r8
8000274c:	fb 38 00 15 	ld.ub	r8,sp[21]
80002750:	f3 e8 10 89 	or	r9,r9,r8<<0x8
80002754:	fc 78 24 00 	mov	r8,-187392
80002758:	91 b9       	st.w	r8[0x2c],r9
8000275a:	fb 3a 00 13 	ld.ub	r10,sp[19]
8000275e:	fb 39 00 12 	ld.ub	r9,sp[18]
80002762:	b1 69       	lsl	r9,0x10
80002764:	f3 ea 11 89 	or	r9,r9,r10<<0x18
80002768:	fb 3a 00 10 	ld.ub	r10,sp[16]
8000276c:	14 49       	or	r9,r10
8000276e:	fb 3a 00 11 	ld.ub	r10,sp[17]
80002772:	f3 ea 10 89 	or	r9,r9,r10<<0x8
80002776:	91 99       	st.w	r8[0x24],r9
80002778:	1b fa       	ld.ub	r10,sp[0x7]
8000277a:	1b e9       	ld.ub	r9,sp[0x6]
8000277c:	b1 69       	lsl	r9,0x10
8000277e:	f3 ea 11 89 	or	r9,r9,r10<<0x18
80002782:	1b ca       	ld.ub	r10,sp[0x4]
80002784:	14 49       	or	r9,r10
80002786:	1b da       	ld.ub	r10,sp[0x5]
80002788:	f3 ea 10 89 	or	r9,r9,r10<<0x8
8000278c:	91 f9       	st.w	r8[0x3c],r9
8000278e:	1b ba       	ld.ub	r10,sp[0x3]
80002790:	1b a9       	ld.ub	r9,sp[0x2]
80002792:	b1 69       	lsl	r9,0x10
80002794:	f3 ea 11 89 	or	r9,r9,r10<<0x18
80002798:	1b 8a       	ld.ub	r10,sp[0x0]
8000279a:	14 49       	or	r9,r10
8000279c:	1b 9a       	ld.ub	r10,sp[0x1]
8000279e:	f3 ea 10 89 	or	r9,r9,r10<<0x8
800027a2:	91 d9       	st.w	r8[0x34],r9
800027a4:	e0 69 00 b8 	mov	r9,184
800027a8:	13 8a       	ld.ub	r10,r9[0x0]
800027aa:	30 09       	mov	r9,0
800027ac:	f2 0a 18 00 	cp.b	r10,r9
800027b0:	e0 81 00 f0 	brne	80002990 <adcifa_configure_sequencer+0x330>
800027b4:	fb 3a 00 2f 	ld.ub	r10,sp[47]
800027b8:	fb 39 00 2e 	ld.ub	r9,sp[46]
800027bc:	b9 69       	lsl	r9,0x18
800027be:	f3 ea 11 c9 	or	r9,r9,r10<<0x1c
800027c2:	fb 3a 00 28 	ld.ub	r10,sp[40]
800027c6:	14 49       	or	r9,r10
800027c8:	fb 3a 00 2d 	ld.ub	r10,sp[45]
800027cc:	f3 ea 11 49 	or	r9,r9,r10<<0x14
800027d0:	fb 3a 00 2c 	ld.ub	r10,sp[44]
800027d4:	f3 ea 11 09 	or	r9,r9,r10<<0x10
800027d8:	fb 3a 00 2b 	ld.ub	r10,sp[43]
800027dc:	f3 ea 10 c9 	or	r9,r9,r10<<0xc
800027e0:	fb 3a 00 2a 	ld.ub	r10,sp[42]
800027e4:	f3 ea 10 89 	or	r9,r9,r10<<0x8
800027e8:	fb 3a 00 29 	ld.ub	r10,sp[41]
800027ec:	f3 ea 10 49 	or	r9,r9,r10<<0x4
800027f0:	91 89       	st.w	r8[0x20],r9
800027f2:	fb 3a 00 1f 	ld.ub	r10,sp[31]
800027f6:	fb 39 00 1e 	ld.ub	r9,sp[30]
800027fa:	b1 69       	lsl	r9,0x10
800027fc:	f3 ea 11 89 	or	r9,r9,r10<<0x18
80002800:	fb 3a 00 1c 	ld.ub	r10,sp[28]
80002804:	14 49       	or	r9,r10
80002806:	fb 3a 00 1d 	ld.ub	r10,sp[29]
8000280a:	f3 ea 10 89 	or	r9,r9,r10<<0x8
8000280e:	91 c9       	st.w	r8[0x30],r9
80002810:	fb 3a 00 1b 	ld.ub	r10,sp[27]
80002814:	fb 39 00 1a 	ld.ub	r9,sp[26]
80002818:	b1 69       	lsl	r9,0x10
8000281a:	f3 ea 11 89 	or	r9,r9,r10<<0x18
8000281e:	fb 3a 00 18 	ld.ub	r10,sp[24]
80002822:	14 49       	or	r9,r10
80002824:	fb 3a 00 19 	ld.ub	r10,sp[25]
80002828:	f3 ea 10 89 	or	r9,r9,r10<<0x8
8000282c:	91 a9       	st.w	r8[0x28],r9
8000282e:	fb 3a 00 0f 	ld.ub	r10,sp[15]
80002832:	fb 39 00 0e 	ld.ub	r9,sp[14]
80002836:	b1 69       	lsl	r9,0x10
80002838:	f3 ea 11 89 	or	r9,r9,r10<<0x18
8000283c:	fb 3a 00 0c 	ld.ub	r10,sp[12]
80002840:	14 49       	or	r9,r10
80002842:	fb 3a 00 0d 	ld.ub	r10,sp[13]
80002846:	f3 ea 10 89 	or	r9,r9,r10<<0x8
8000284a:	f1 49 00 40 	st.w	r8[64],r9
8000284e:	fb 3a 00 0b 	ld.ub	r10,sp[11]
80002852:	fb 39 00 0a 	ld.ub	r9,sp[10]
80002856:	b1 69       	lsl	r9,0x10
80002858:	f3 ea 11 89 	or	r9,r9,r10<<0x18
8000285c:	fb 3a 00 08 	ld.ub	r10,sp[8]
80002860:	14 49       	or	r9,r10
80002862:	fb 3a 00 09 	ld.ub	r10,sp[9]
80002866:	f3 ea 10 89 	or	r9,r9,r10<<0x8
8000286a:	91 e9       	st.w	r8[0x38],r9
8000286c:	c9 28       	rjmp	80002990 <adcifa_configure_sequencer+0x330>
8000286e:	15 97       	ld.ub	r7,r10[0x1]
80002870:	15 e8       	ld.ub	r8,r10[0x6]
80002872:	a5 a8       	sbr	r8,0x4
80002874:	f1 e7 10 c8 	or	r8,r8,r7<<0xc
80002878:	15 a7       	ld.ub	r7,r10[0x2]
8000287a:	f1 e7 10 88 	or	r8,r8,r7<<0x8
8000287e:	15 b7       	ld.ub	r7,r10[0x3]
80002880:	f1 e7 10 28 	or	r8,r8,r7<<0x2
80002884:	15 dc       	ld.ub	r12,r10[0x5]
80002886:	15 8b       	ld.ub	r11,r10[0x0]
80002888:	15 ca       	ld.ub	r10,r10[0x4]
8000288a:	f1 ea 10 3a 	or	r10,r8,r10<<0x3
8000288e:	f6 c8 00 01 	sub	r8,r11,1
80002892:	f5 ec 10 1a 	or	r10,r10,r12<<0x1
80002896:	f5 e8 11 0a 	or	r10,r10,r8<<0x10
8000289a:	fc 78 24 00 	mov	r8,-187392
8000289e:	91 6a       	st.w	r8[0x18],r10
800028a0:	fa c8 ff e0 	sub	r8,sp,-32
800028a4:	12 9a       	mov	r10,r9
800028a6:	f6 08 00 0c 	add	r12,r11,r8
800028aa:	c0 48       	rjmp	800028b2 <adcifa_configure_sequencer+0x252>
800028ac:	15 a7       	ld.ub	r7,r10[0x2]
800028ae:	2f da       	sub	r10,-3
800028b0:	10 c7       	st.b	r8++,r7
800028b2:	18 38       	cp.w	r8,r12
800028b4:	cf c1       	brne	800028ac <adcifa_configure_sequencer+0x24c>
800028b6:	fb 38 00 27 	ld.ub	r8,sp[39]
800028ba:	fb 3a 00 26 	ld.ub	r10,sp[38]
800028be:	b9 6a       	lsl	r10,0x18
800028c0:	f5 e8 11 ca 	or	r10,r10,r8<<0x1c
800028c4:	fb 38 00 20 	ld.ub	r8,sp[32]
800028c8:	10 4a       	or	r10,r8
800028ca:	fb 38 00 25 	ld.ub	r8,sp[37]
800028ce:	f5 e8 11 4a 	or	r10,r10,r8<<0x14
800028d2:	fb 38 00 24 	ld.ub	r8,sp[36]
800028d6:	f5 e8 11 0a 	or	r10,r10,r8<<0x10
800028da:	fb 38 00 23 	ld.ub	r8,sp[35]
800028de:	f5 e8 10 ca 	or	r10,r10,r8<<0xc
800028e2:	fb 38 00 22 	ld.ub	r8,sp[34]
800028e6:	f5 e8 10 8a 	or	r10,r10,r8<<0x8
800028ea:	fb 38 00 21 	ld.ub	r8,sp[33]
800028ee:	f5 e8 10 4a 	or	r10,r10,r8<<0x4
800028f2:	fc 78 24 00 	mov	r8,-187392
800028f6:	fa cc ff f0 	sub	r12,sp,-16
800028fa:	91 8a       	st.w	r8[0x20],r10
800028fc:	30 08       	mov	r8,0
800028fe:	1a 9a       	mov	r10,sp
80002900:	c0 a8       	rjmp	80002914 <adcifa_configure_sequencer+0x2b4>
80002902:	d7 03       	nop
80002904:	13 87       	ld.ub	r7,r9[0x0]
80002906:	f8 08 0b 07 	st.b	r12[r8],r7
8000290a:	13 97       	ld.ub	r7,r9[0x1]
8000290c:	2f d9       	sub	r9,-3
8000290e:	f4 08 0b 07 	st.b	r10[r8],r7
80002912:	2f f8       	sub	r8,-1
80002914:	f6 08 18 00 	cp.b	r8,r11
80002918:	cf 63       	brcs	80002904 <adcifa_configure_sequencer+0x2a4>
8000291a:	fb 38 00 17 	ld.ub	r8,sp[23]
8000291e:	fb 39 00 16 	ld.ub	r9,sp[22]
80002922:	b1 69       	lsl	r9,0x10
80002924:	f3 e8 11 89 	or	r9,r9,r8<<0x18
80002928:	fb 38 00 14 	ld.ub	r8,sp[20]
8000292c:	10 49       	or	r9,r8
8000292e:	fb 38 00 15 	ld.ub	r8,sp[21]
80002932:	f3 e8 10 89 	or	r9,r9,r8<<0x8
80002936:	fc 78 24 00 	mov	r8,-187392
8000293a:	91 c9       	st.w	r8[0x30],r9
8000293c:	fb 3a 00 13 	ld.ub	r10,sp[19]
80002940:	fb 39 00 12 	ld.ub	r9,sp[18]
80002944:	b1 69       	lsl	r9,0x10
80002946:	f3 ea 11 89 	or	r9,r9,r10<<0x18
8000294a:	fb 3a 00 10 	ld.ub	r10,sp[16]
8000294e:	14 49       	or	r9,r10
80002950:	fb 3a 00 11 	ld.ub	r10,sp[17]
80002954:	f3 ea 10 89 	or	r9,r9,r10<<0x8
80002958:	91 a9       	st.w	r8[0x28],r9
8000295a:	1b fa       	ld.ub	r10,sp[0x7]
8000295c:	1b e9       	ld.ub	r9,sp[0x6]
8000295e:	b1 69       	lsl	r9,0x10
80002960:	f3 ea 11 89 	or	r9,r9,r10<<0x18
80002964:	1b ca       	ld.ub	r10,sp[0x4]
80002966:	14 49       	or	r9,r10
80002968:	1b da       	ld.ub	r10,sp[0x5]
8000296a:	f3 ea 10 89 	or	r9,r9,r10<<0x8
8000296e:	f1 49 00 40 	st.w	r8[64],r9
80002972:	1b ba       	ld.ub	r10,sp[0x3]
80002974:	1b a9       	ld.ub	r9,sp[0x2]
80002976:	b1 69       	lsl	r9,0x10
80002978:	f3 ea 11 89 	or	r9,r9,r10<<0x18
8000297c:	1b 8a       	ld.ub	r10,sp[0x0]
8000297e:	14 49       	or	r9,r10
80002980:	1b 9a       	ld.ub	r10,sp[0x1]
80002982:	f3 ea 10 89 	or	r9,r9,r10<<0x8
80002986:	91 e9       	st.w	r8[0x38],r9
80002988:	30 19       	mov	r9,1
8000298a:	e0 68 00 b8 	mov	r8,184
8000298e:	b0 89       	st.b	r8[0x0],r9
80002990:	2f 4d       	sub	sp,-48
80002992:	da 2a       	popm	r4-r7,pc,r12=1

80002994 <adcifa_start_sequencer>:
80002994:	30 18       	mov	r8,1
80002996:	f0 0b 18 00 	cp.b	r11,r8
8000299a:	c0 90       	breq	800029ac <adcifa_start_sequencer+0x18>
8000299c:	c0 63       	brcs	800029a8 <adcifa_start_sequencer+0x14>
8000299e:	30 38       	mov	r8,3
800029a0:	f0 0b 18 00 	cp.b	r11,r8
800029a4:	5e 1c       	retne	r12
800029a6:	c0 58       	rjmp	800029b0 <adcifa_start_sequencer+0x1c>
800029a8:	30 19       	mov	r9,1
800029aa:	c0 48       	rjmp	800029b2 <adcifa_start_sequencer+0x1e>
800029ac:	30 29       	mov	r9,2
800029ae:	c0 28       	rjmp	800029b2 <adcifa_start_sequencer+0x1e>
800029b0:	30 39       	mov	r9,3
800029b2:	fc 78 24 00 	mov	r8,-187392
800029b6:	91 09       	st.w	r8[0x0],r9
800029b8:	5e fc       	retal	r12

800029ba <adcifa_get_values_from_sequencer>:
800029ba:	d4 01       	pushm	lr
800029bc:	58 0b       	cp.w	r11,0
800029be:	c0 60       	breq	800029ca <adcifa_get_values_from_sequencer+0x10>
800029c0:	30 18       	mov	r8,1
800029c2:	f0 0b 18 00 	cp.b	r11,r8
800029c6:	c3 d1       	brne	80002a40 <adcifa_get_values_from_sequencer+0x86>
800029c8:	c0 78       	rjmp	800029d6 <adcifa_get_values_from_sequencer+0x1c>
800029ca:	fc 78 24 00 	mov	r8,-187392
800029ce:	70 28       	ld.w	r8,r8[0x8]
800029d0:	f1 d8 c0 01 	bfextu	r8,r8,0x0,0x1
800029d4:	c0 68       	rjmp	800029e0 <adcifa_get_values_from_sequencer+0x26>
800029d6:	fc 78 24 00 	mov	r8,-187392
800029da:	70 28       	ld.w	r8,r8[0x8]
800029dc:	f1 d8 c0 81 	bfextu	r8,r8,0x4,0x1
800029e0:	58 08       	cp.w	r8,0
800029e2:	c2 f0       	breq	80002a40 <adcifa_get_values_from_sequencer+0x86>
800029e4:	58 0b       	cp.w	r11,0
800029e6:	c0 90       	breq	800029f8 <adcifa_get_values_from_sequencer+0x3e>
800029e8:	30 18       	mov	r8,1
800029ea:	f0 0b 18 00 	cp.b	r11,r8
800029ee:	c2 b1       	brne	80002a44 <adcifa_get_values_from_sequencer+0x8a>
800029f0:	30 08       	mov	r8,0
800029f2:	fc 7b 24 00 	mov	r11,-187392
800029f6:	c1 d8       	rjmp	80002a30 <adcifa_get_values_from_sequencer+0x76>
800029f8:	30 08       	mov	r8,0
800029fa:	fc 7b 24 00 	mov	r11,-187392
800029fe:	c0 98       	rjmp	80002a10 <adcifa_get_values_from_sequencer+0x56>
80002a00:	f0 cc ff df 	sub	r12,r8,-33
80002a04:	f6 0c 03 2c 	ld.w	r12,r11[r12<<0x2]
80002a08:	f2 08 0a 1c 	st.h	r9[r8<<0x1],r12
80002a0c:	f1 de c0 08 	bfextu	r8,lr,0x0,0x8
80002a10:	f0 ce ff ff 	sub	lr,r8,-1
80002a14:	15 8c       	ld.ub	r12,r10[0x0]
80002a16:	f0 0c 18 00 	cp.b	r12,r8
80002a1a:	fe 9b ff f3 	brhi	80002a00 <adcifa_get_values_from_sequencer+0x46>
80002a1e:	c1 38       	rjmp	80002a44 <adcifa_get_values_from_sequencer+0x8a>
80002a20:	f0 cc ff d7 	sub	r12,r8,-41
80002a24:	f6 0c 03 2c 	ld.w	r12,r11[r12<<0x2]
80002a28:	f2 08 0a 1c 	st.h	r9[r8<<0x1],r12
80002a2c:	f1 de c0 08 	bfextu	r8,lr,0x0,0x8
80002a30:	f0 ce ff ff 	sub	lr,r8,-1
80002a34:	15 8c       	ld.ub	r12,r10[0x0]
80002a36:	f0 0c 18 00 	cp.b	r12,r8
80002a3a:	fe 9b ff f3 	brhi	80002a20 <adcifa_get_values_from_sequencer+0x66>
80002a3e:	c0 38       	rjmp	80002a44 <adcifa_get_values_from_sequencer+0x8a>
80002a40:	30 3c       	mov	r12,3
80002a42:	d8 02       	popm	pc
80002a44:	30 2c       	mov	r12,2
80002a46:	d8 02       	popm	pc

80002a48 <flashc_default_wait_until_ready>:
80002a48:	fe 69 00 00 	mov	r9,-131072
80002a4c:	30 08       	mov	r8,0
80002a4e:	72 2a       	ld.w	r10,r9[0x8]
80002a50:	f5 da c0 01 	bfextu	r10,r10,0x0,0x1
80002a54:	f0 0a 18 00 	cp.b	r10,r8
80002a58:	cf b0       	breq	80002a4e <flashc_default_wait_until_ready+0x6>
80002a5a:	5e fc       	retal	r12

80002a5c <flashc_issue_command>:
80002a5c:	d4 21       	pushm	r4-r7,lr
80002a5e:	30 88       	mov	r8,8
80002a60:	18 97       	mov	r7,r12
80002a62:	70 08       	ld.w	r8,r8[0x0]
80002a64:	16 96       	mov	r6,r11
80002a66:	5d 18       	icall	r8
80002a68:	fe 68 00 00 	mov	r8,-131072
80002a6c:	70 18       	ld.w	r8,r8[0x4]
80002a6e:	f1 d7 d0 06 	bfins	r8,r7,0x0,0x6
80002a72:	58 06       	cp.w	r6,0
80002a74:	c0 35       	brlt	80002a7a <flashc_issue_command+0x1e>
80002a76:	f1 d6 d1 10 	bfins	r8,r6,0x8,0x10
80002a7a:	fe 69 00 00 	mov	r9,-131072
80002a7e:	3a 5a       	mov	r10,-91
80002a80:	f1 da d3 08 	bfins	r8,r10,0x18,0x8
80002a84:	93 18       	st.w	r9[0x4],r8
80002a86:	72 28       	ld.w	r8,r9[0x8]
80002a88:	e0 69 00 bc 	mov	r9,188
80002a8c:	e2 18 00 0c 	andl	r8,0xc,COH
80002a90:	93 08       	st.w	r9[0x0],r8
80002a92:	30 88       	mov	r8,8
80002a94:	70 08       	ld.w	r8,r8[0x0]
80002a96:	5d 18       	icall	r8
80002a98:	d8 22       	popm	r4-r7,pc
80002a9a:	d7 03       	nop

80002a9c <flashc_clear_page_buffer>:
80002a9c:	d4 01       	pushm	lr
80002a9e:	3f fb       	mov	r11,-1
80002aa0:	30 3c       	mov	r12,3
80002aa2:	cd df       	rcall	80002a5c <flashc_issue_command>
80002aa4:	d8 02       	popm	pc
80002aa6:	d7 03       	nop

80002aa8 <flashc_quick_page_read>:
80002aa8:	d4 01       	pushm	lr
80002aaa:	18 9b       	mov	r11,r12
80002aac:	30 cc       	mov	r12,12
80002aae:	cd 7f       	rcall	80002a5c <flashc_issue_command>
80002ab0:	fe 68 00 00 	mov	r8,-131072
80002ab4:	70 2c       	ld.w	r12,r8[0x8]
80002ab6:	f9 dc c0 a1 	bfextu	r12,r12,0x5,0x1
80002aba:	d8 02       	popm	pc

80002abc <flashc_erase_page>:
80002abc:	d4 21       	pushm	r4-r7,lr
80002abe:	16 97       	mov	r7,r11
80002ac0:	18 9b       	mov	r11,r12
80002ac2:	30 2c       	mov	r12,2
80002ac4:	cc cf       	rcall	80002a5c <flashc_issue_command>
80002ac6:	58 07       	cp.w	r7,0
80002ac8:	c0 21       	brne	80002acc <flashc_erase_page+0x10>
80002aca:	da 2a       	popm	r4-r7,pc,r12=1
80002acc:	e0 67 00 bc 	mov	r7,188
80002ad0:	3f fc       	mov	r12,-1
80002ad2:	6e 06       	ld.w	r6,r7[0x0]
80002ad4:	ce af       	rcall	80002aa8 <flashc_quick_page_read>
80002ad6:	6e 08       	ld.w	r8,r7[0x0]
80002ad8:	f1 e6 10 06 	or	r6,r8,r6
80002adc:	8f 06       	st.w	r7[0x0],r6
80002ade:	d8 22       	popm	r4-r7,pc

80002ae0 <flashc_write_page>:
80002ae0:	d4 01       	pushm	lr
80002ae2:	18 9b       	mov	r11,r12
80002ae4:	30 1c       	mov	r12,1
80002ae6:	cb bf       	rcall	80002a5c <flashc_issue_command>
80002ae8:	d8 02       	popm	pc
80002aea:	d7 03       	nop

80002aec <flashc_quick_user_page_read>:
80002aec:	d4 01       	pushm	lr
80002aee:	30 fc       	mov	r12,15
80002af0:	3f fb       	mov	r11,-1
80002af2:	cb 5f       	rcall	80002a5c <flashc_issue_command>
80002af4:	fe 68 00 00 	mov	r8,-131072
80002af8:	70 2c       	ld.w	r12,r8[0x8]
80002afa:	f9 dc c0 a1 	bfextu	r12,r12,0x5,0x1
80002afe:	d8 02       	popm	pc

80002b00 <flashc_erase_user_page>:
80002b00:	d4 21       	pushm	r4-r7,lr
80002b02:	3f fb       	mov	r11,-1
80002b04:	18 97       	mov	r7,r12
80002b06:	30 ec       	mov	r12,14
80002b08:	ca af       	rcall	80002a5c <flashc_issue_command>
80002b0a:	58 07       	cp.w	r7,0
80002b0c:	c0 21       	brne	80002b10 <flashc_erase_user_page+0x10>
80002b0e:	da 2a       	popm	r4-r7,pc,r12=1
80002b10:	ce ef       	rcall	80002aec <flashc_quick_user_page_read>
80002b12:	d8 22       	popm	r4-r7,pc

80002b14 <flashc_write_user_page>:
80002b14:	d4 01       	pushm	lr
80002b16:	3f fb       	mov	r11,-1
80002b18:	30 dc       	mov	r12,13
80002b1a:	ca 1f       	rcall	80002a5c <flashc_issue_command>
80002b1c:	d8 02       	popm	pc
80002b1e:	d7 03       	nop

80002b20 <flashc_memset64>:
80002b20:	d4 31       	pushm	r0-r7,lr
80002b22:	21 6d       	sub	sp,88
80002b24:	50 58       	stdsp	sp[0x14],r8
80002b26:	12 96       	mov	r6,r9
80002b28:	30 08       	mov	r8,0
80002b2a:	30 09       	mov	r9,0
80002b2c:	18 97       	mov	r7,r12
80002b2e:	fa e9 00 48 	st.d	sp[72],r8
80002b32:	14 94       	mov	r4,r10
80002b34:	16 95       	mov	r5,r11
80002b36:	31 ea       	mov	r10,30
80002b38:	fe cb cd 10 	sub	r11,pc,-13040
80002b3c:	fa cc ff de 	sub	r12,sp,-34
80002b40:	e0 a0 16 99 	rcall	80005872 <memcpy>
80002b44:	fe 68 00 00 	mov	r8,-131072
80002b48:	fa cb ff a8 	sub	r11,sp,-88
80002b4c:	70 38       	ld.w	r8,r8[0xc]
80002b4e:	f1 d8 c0 04 	bfextu	r8,r8,0x0,0x4
80002b52:	f6 08 00 18 	add	r8,r11,r8<<0x1
80002b56:	f1 13 ff ca 	ld.uh	r3,r8[-54]
80002b5a:	fc 18 80 00 	movh	r8,0x8000
80002b5e:	ab 63       	lsl	r3,0xa
80002b60:	51 57       	stdsp	sp[0x54],r7
80002b62:	10 03       	add	r3,r8
80002b64:	ee c8 ff f9 	sub	r8,r7,-7
80002b68:	f1 d8 c0 03 	bfextu	r8,r8,0x0,0x3
80002b6c:	c1 38       	rjmp	80002b92 <flashc_memset64+0x72>
80002b6e:	f0 c9 00 01 	sub	r9,r8,1
80002b72:	fa ca ff a8 	sub	r10,sp,-88
80002b76:	f4 08 00 08 	add	r8,r10,r8
80002b7a:	ea 0a 16 08 	lsr	r10,r5,0x8
80002b7e:	f1 64 ff f0 	st.b	r8[-16],r4
80002b82:	f1 d9 c0 03 	bfextu	r8,r9,0x0,0x3
80002b86:	e8 09 16 08 	lsr	r9,r4,0x8
80002b8a:	f3 e5 11 89 	or	r9,r9,r5<<0x18
80002b8e:	14 95       	mov	r5,r10
80002b90:	12 94       	mov	r4,r9
80002b92:	58 04       	cp.w	r4,0
80002b94:	5c 25       	cpc	r5
80002b96:	ce c1       	brne	80002b6e <flashc_memset64+0x4e>
80002b98:	ee 06 00 06 	add	r6,r7,r6
80002b9c:	e0 69 ff ff 	mov	r9,65535
80002ba0:	ea 19 7f ff 	orh	r9,0x7fff
80002ba4:	12 37       	cp.w	r7,r9
80002ba6:	e0 8b 00 05 	brhi	80002bb0 <flashc_memset64+0x90>
80002baa:	fc 18 80 00 	movh	r8,0x8000
80002bae:	c0 d8       	rjmp	80002bc8 <flashc_memset64+0xa8>
80002bb0:	0e 33       	cp.w	r3,r7
80002bb2:	e0 8b 00 0c 	brhi	80002bca <flashc_memset64+0xaa>
80002bb6:	e0 68 ff ff 	mov	r8,65535
80002bba:	ea 18 80 7f 	orh	r8,0x807f
80002bbe:	10 37       	cp.w	r7,r8
80002bc0:	e0 8b 00 05 	brhi	80002bca <flashc_memset64+0xaa>
80002bc4:	fc 18 80 80 	movh	r8,0x8080
80002bc8:	51 58       	stdsp	sp[0x54],r8
80002bca:	e0 61 02 00 	mov	r1,512
80002bce:	ea 11 80 80 	orh	r1,0x8080
80002bd2:	02 36       	cp.w	r6,r1
80002bd4:	e0 88 00 04 	brls	80002bdc <flashc_memset64+0xbc>
80002bd8:	02 96       	mov	r6,r1
80002bda:	c0 98       	rjmp	80002bec <flashc_memset64+0xcc>
80002bdc:	fc 10 80 80 	movh	r0,0x8080
80002be0:	00 36       	cp.w	r6,r0
80002be2:	e0 8b 00 05 	brhi	80002bec <flashc_memset64+0xcc>
80002be6:	06 36       	cp.w	r6,r3
80002be8:	e6 06 17 b0 	movhi	r6,r3
80002bec:	fa ea 00 48 	ld.d	r10,sp[72]
80002bf0:	e5 d6 c0 03 	bfextu	r2,r6,0x0,0x3
80002bf4:	0c 91       	mov	r1,r6
80002bf6:	ec 02 01 08 	sub	r8,r6,r2
80002bfa:	fa eb 00 04 	st.d	sp[4],r10
80002bfe:	2f 88       	sub	r8,-8
80002c00:	0c 9a       	mov	r10,r6
80002c02:	e0 11 ff f8 	andl	r1,0xfff8
80002c06:	e0 1a fe 00 	andl	r10,0xfe00
80002c0a:	50 78       	stdsp	sp[0x1c],r8
80002c0c:	30 05       	mov	r5,0
80002c0e:	e0 64 00 bc 	mov	r4,188
80002c12:	50 6a       	stdsp	sp[0x18],r10
80002c14:	c9 b8       	rjmp	80002d4a <flashc_memset64+0x22a>
80002c16:	c4 3f       	rcall	80002a9c <flashc_clear_page_buffer>
80002c18:	fa e8 00 04 	ld.d	r8,sp[4]
80002c1c:	fa e9 00 40 	st.d	sp[64],r8
80002c20:	68 08       	ld.w	r8,r4[0x0]
80002c22:	00 99       	mov	r9,r0
80002c24:	10 45       	or	r5,r8
80002c26:	e0 19 fe 00 	andl	r9,0xfe00
80002c2a:	f1 d0 c0 09 	bfextu	r8,r0,0x0,0x9
80002c2e:	f2 cc fe 00 	sub	r12,r9,-512
80002c32:	e2 0c 0d 4c 	min	r12,r1,r12
80002c36:	58 08       	cp.w	r8,0
80002c38:	c3 30       	breq	80002c9e <flashc_memset64+0x17e>
80002c3a:	00 9a       	mov	r10,r0
80002c3c:	51 49       	stdsp	sp[0x50],r9
80002c3e:	12 9b       	mov	r11,r9
80002c40:	e0 1a ff f8 	andl	r10,0xfff8
80002c44:	0c 9e       	mov	lr,r6
80002c46:	50 07       	stdsp	sp[0x0],r7
80002c48:	c0 68       	rjmp	80002c54 <flashc_memset64+0x134>
80002c4a:	d7 03       	nop
80002c4c:	f0 e6 00 00 	ld.d	r6,r8[0]
80002c50:	f0 e7 00 00 	st.d	r8[0],r6
80002c54:	16 98       	mov	r8,r11
80002c56:	2f 8b       	sub	r11,-8
80002c58:	14 38       	cp.w	r8,r10
80002c5a:	cf 93       	brcs	80002c4c <flashc_memset64+0x12c>
80002c5c:	51 48       	stdsp	sp[0x50],r8
80002c5e:	1c 96       	mov	r6,lr
80002c60:	40 07       	lddsp	r7,sp[0x0]
80002c62:	e1 d0 c0 03 	bfextu	r0,r0,0x0,0x3
80002c66:	c1 c0       	breq	80002c9e <flashc_memset64+0x17e>
80002c68:	30 0b       	mov	r11,0
80002c6a:	50 39       	stdsp	sp[0xc],r9
80002c6c:	f0 0b 00 0e 	add	lr,r8,r11
80002c70:	fa c9 ff c0 	sub	r9,sp,-64
80002c74:	1d 8e       	ld.ub	lr,lr[0x0]
80002c76:	f2 0b 0b 0e 	st.b	r9[r11],lr
80002c7a:	2f fb       	sub	r11,-1
80002c7c:	00 3b       	cp.w	r11,r0
80002c7e:	cf 71       	brne	80002c6c <flashc_memset64+0x14c>
80002c80:	16 08       	add	r8,r11
80002c82:	51 5a       	stdsp	sp[0x54],r10
80002c84:	51 48       	stdsp	sp[0x50],r8
80002c86:	40 39       	lddsp	r9,sp[0xc]
80002c88:	02 3a       	cp.w	r10,r1
80002c8a:	c0 a2       	brcc	80002c9e <flashc_memset64+0x17e>
80002c8c:	14 98       	mov	r8,r10
80002c8e:	fa ea 00 40 	ld.d	r10,sp[64]
80002c92:	b1 2a       	st.d	r8++,r10
80002c94:	fa ea 00 04 	ld.d	r10,sp[4]
80002c98:	51 58       	stdsp	sp[0x54],r8
80002c9a:	fa eb 00 40 	st.d	sp[64],r10
80002c9e:	41 58       	lddsp	r8,sp[0x54]
80002ca0:	02 9e       	mov	lr,r1
80002ca2:	10 1c       	sub	r12,r8
80002ca4:	10 9b       	mov	r11,r8
80002ca6:	a3 5c       	asr	r12,0x3
80002ca8:	18 9a       	mov	r10,r12
80002caa:	c0 58       	rjmp	80002cb4 <flashc_memset64+0x194>
80002cac:	fa e0 00 04 	ld.d	r0,sp[4]
80002cb0:	20 1a       	sub	r10,1
80002cb2:	b7 20       	st.d	r11++,r0
80002cb4:	58 0a       	cp.w	r10,0
80002cb6:	cf b1       	brne	80002cac <flashc_memset64+0x18c>
80002cb8:	f0 0c 00 3c 	add	r12,r8,r12<<0x3
80002cbc:	51 5c       	stdsp	sp[0x54],r12
80002cbe:	1c 91       	mov	r1,lr
80002cc0:	40 60       	lddsp	r0,sp[0x18]
80002cc2:	00 39       	cp.w	r9,r0
80002cc4:	c2 13       	brcs	80002d06 <flashc_memset64+0x1e6>
80002cc6:	51 46       	stdsp	sp[0x50],r6
80002cc8:	58 02       	cp.w	r2,0
80002cca:	c1 10       	breq	80002cec <flashc_memset64+0x1cc>
80002ccc:	fa c8 ff c0 	sub	r8,sp,-64
80002cd0:	0c 99       	mov	r9,r6
80002cd2:	04 08       	add	r8,r2
80002cd4:	fa ca ff b8 	sub	r10,sp,-72
80002cd8:	13 3b       	ld.ub	r11,r9++
80002cda:	10 cb       	st.b	r8++,r11
80002cdc:	14 38       	cp.w	r8,r10
80002cde:	cf d1       	brne	80002cd8 <flashc_memset64+0x1b8>
80002ce0:	40 7b       	lddsp	r11,sp[0x1c]
80002ce2:	51 4b       	stdsp	sp[0x50],r11
80002ce4:	fa e8 00 40 	ld.d	r8,sp[64]
80002ce8:	b9 28       	st.d	r12++,r8
80002cea:	51 5c       	stdsp	sp[0x54],r12
80002cec:	41 48       	lddsp	r8,sp[0x50]
80002cee:	c0 58       	rjmp	80002cf8 <flashc_memset64+0x1d8>
80002cf0:	f2 ea 00 00 	ld.d	r10,r9[0]
80002cf4:	f2 eb 00 00 	st.d	r9[0],r10
80002cf8:	10 99       	mov	r9,r8
80002cfa:	f5 d8 c0 09 	bfextu	r10,r8,0x0,0x9
80002cfe:	2f 88       	sub	r8,-8
80002d00:	58 0a       	cp.w	r10,0
80002d02:	cf 71       	brne	80002cf0 <flashc_memset64+0x1d0>
80002d04:	51 49       	stdsp	sp[0x50],r9
80002d06:	41 50       	lddsp	r0,sp[0x54]
80002d08:	fc 1a 80 80 	movh	r10,0x8080
80002d0c:	14 30       	cp.w	r0,r10
80002d0e:	e0 8b 00 14 	brhi	80002d36 <flashc_memset64+0x216>
80002d12:	40 59       	lddsp	r9,sp[0x14]
80002d14:	58 09       	cp.w	r9,0
80002d16:	c0 60       	breq	80002d22 <flashc_memset64+0x202>
80002d18:	30 0b       	mov	r11,0
80002d1a:	3f fc       	mov	r12,-1
80002d1c:	cd 0e       	rcall	80002abc <flashc_erase_page>
80002d1e:	68 08       	ld.w	r8,r4[0x0]
80002d20:	10 45       	or	r5,r8
80002d22:	3f fc       	mov	r12,-1
80002d24:	cd ee       	rcall	80002ae0 <flashc_write_page>
80002d26:	68 08       	ld.w	r8,r4[0x0]
80002d28:	10 45       	or	r5,r8
80002d2a:	06 30       	cp.w	r0,r3
80002d2c:	c0 f3       	brcs	80002d4a <flashc_memset64+0x22a>
80002d2e:	fc 18 80 80 	movh	r8,0x8080
80002d32:	51 58       	stdsp	sp[0x54],r8
80002d34:	c0 b8       	rjmp	80002d4a <flashc_memset64+0x22a>
80002d36:	40 58       	lddsp	r8,sp[0x14]
80002d38:	58 08       	cp.w	r8,0
80002d3a:	c0 50       	breq	80002d44 <flashc_memset64+0x224>
80002d3c:	30 0c       	mov	r12,0
80002d3e:	ce 1e       	rcall	80002b00 <flashc_erase_user_page>
80002d40:	68 08       	ld.w	r8,r4[0x0]
80002d42:	10 45       	or	r5,r8
80002d44:	ce 8e       	rcall	80002b14 <flashc_write_user_page>
80002d46:	68 08       	ld.w	r8,r4[0x0]
80002d48:	10 45       	or	r5,r8
80002d4a:	41 50       	lddsp	r0,sp[0x54]
80002d4c:	0c 30       	cp.w	r0,r6
80002d4e:	fe 93 ff 64 	brlo	80002c16 <flashc_memset64+0xf6>
80002d52:	e0 68 00 bc 	mov	r8,188
80002d56:	0e 9c       	mov	r12,r7
80002d58:	91 05       	st.w	r8[0x0],r5
80002d5a:	2e ad       	sub	sp,-88
80002d5c:	d8 32       	popm	r0-r7,pc
80002d5e:	d7 03       	nop

80002d60 <flashc_memset32>:
80002d60:	d4 21       	pushm	r4-r7,lr
80002d62:	30 0e       	mov	lr,0
80002d64:	16 96       	mov	r6,r11
80002d66:	1c 97       	mov	r7,lr
80002d68:	12 98       	mov	r8,r9
80002d6a:	0c 9b       	mov	r11,r6
80002d6c:	14 99       	mov	r9,r10
80002d6e:	0e 4b       	or	r11,r7
80002d70:	0e 9a       	mov	r10,r7
80002d72:	0c 4a       	or	r10,r6
80002d74:	cd 6e       	rcall	80002b20 <flashc_memset64>
80002d76:	d8 22       	popm	r4-r7,pc

80002d78 <flashc_memset16>:
80002d78:	d4 01       	pushm	lr
80002d7a:	f7 db d2 10 	bfins	r11,r11,0x10,0x10
80002d7e:	cf 1f       	rcall	80002d60 <flashc_memset32>
80002d80:	d8 02       	popm	pc
80002d82:	d7 03       	nop

80002d84 <flashc_memset8>:
80002d84:	d4 01       	pushm	lr
80002d86:	f7 eb 10 8b 	or	r11,r11,r11<<0x8
80002d8a:	5c 7b       	castu.h	r11
80002d8c:	cf 6f       	rcall	80002d78 <flashc_memset16>
80002d8e:	d8 02       	popm	pc

80002d90 <flashc_memcpy>:
80002d90:	d4 31       	pushm	r0-r7,lr
80002d92:	20 4d       	sub	sp,16
80002d94:	e0 6e ff ff 	mov	lr,65535
80002d98:	ea 1e 80 7f 	orh	lr,0x807f
80002d9c:	18 95       	mov	r5,r12
80002d9e:	1c 3c       	cp.w	r12,lr
80002da0:	f9 b2 0b 01 	movhi	r2,1
80002da4:	f9 b2 08 00 	movls	r2,0
80002da8:	18 97       	mov	r7,r12
80002daa:	18 93       	mov	r3,r12
80002dac:	14 96       	mov	r6,r10
80002dae:	fa cc ff f0 	sub	r12,sp,-16
80002db2:	50 19       	stdsp	sp[0x4],r9
80002db4:	16 90       	mov	r0,r11
80002db6:	5c 52       	castu.b	r2
80002db8:	30 01       	mov	r1,0
80002dba:	e0 15 fe 00 	andl	r5,0xfe00
80002dbe:	e0 64 00 bc 	mov	r4,188
80002dc2:	50 0c       	stdsp	sp[0x0],r12
80002dc4:	c4 08       	rjmp	80002e44 <flashc_memcpy+0xb4>
80002dc6:	c6 be       	rcall	80002a9c <flashc_clear_page_buffer>
80002dc8:	68 08       	ld.w	r8,r4[0x0]
80002dca:	ea cb fe 00 	sub	r11,r5,-512
80002dce:	10 41       	or	r1,r8
80002dd0:	16 9c       	mov	r12,r11
80002dd2:	0a 98       	mov	r8,r5
80002dd4:	f0 ea 00 00 	ld.d	r10,r8[0]
80002dd8:	fa c9 ff f8 	sub	r9,sp,-8
80002ddc:	fa eb 00 08 	st.d	sp[8],r10
80002de0:	10 9a       	mov	r10,r8
80002de2:	18 9b       	mov	r11,r12
80002de4:	06 3a       	cp.w	r10,r3
80002de6:	5f 0e       	sreq	lr
80002de8:	58 06       	cp.w	r6,0
80002dea:	5f 1c       	srne	r12
80002dec:	fd ec 00 0c 	and	r12,lr,r12
80002df0:	30 0e       	mov	lr,0
80002df2:	fc 0c 18 00 	cp.b	r12,lr
80002df6:	c0 50       	breq	80002e00 <flashc_memcpy+0x70>
80002df8:	01 3c       	ld.ub	r12,r0++
80002dfa:	2f f3       	sub	r3,-1
80002dfc:	20 16       	sub	r6,1
80002dfe:	b2 8c       	st.b	r9[0x0],r12
80002e00:	2f fa       	sub	r10,-1
80002e02:	2f f9       	sub	r9,-1
80002e04:	40 0c       	lddsp	r12,sp[0x0]
80002e06:	18 39       	cp.w	r9,r12
80002e08:	ce e1       	brne	80002de4 <flashc_memcpy+0x54>
80002e0a:	16 9c       	mov	r12,r11
80002e0c:	fa ea 00 08 	ld.d	r10,sp[8]
80002e10:	b1 2a       	st.d	r8++,r10
80002e12:	18 38       	cp.w	r8,r12
80002e14:	ce 01       	brne	80002dd4 <flashc_memcpy+0x44>
80002e16:	ea c5 fe 00 	sub	r5,r5,-512
80002e1a:	40 1a       	lddsp	r10,sp[0x4]
80002e1c:	58 0a       	cp.w	r10,0
80002e1e:	c0 b0       	breq	80002e34 <flashc_memcpy+0xa4>
80002e20:	58 02       	cp.w	r2,0
80002e22:	c0 40       	breq	80002e2a <flashc_memcpy+0x9a>
80002e24:	30 0c       	mov	r12,0
80002e26:	c6 de       	rcall	80002b00 <flashc_erase_user_page>
80002e28:	c0 48       	rjmp	80002e30 <flashc_memcpy+0xa0>
80002e2a:	04 9b       	mov	r11,r2
80002e2c:	3f fc       	mov	r12,-1
80002e2e:	c4 7e       	rcall	80002abc <flashc_erase_page>
80002e30:	68 08       	ld.w	r8,r4[0x0]
80002e32:	10 41       	or	r1,r8
80002e34:	58 02       	cp.w	r2,0
80002e36:	c0 30       	breq	80002e3c <flashc_memcpy+0xac>
80002e38:	c6 ee       	rcall	80002b14 <flashc_write_user_page>
80002e3a:	c0 38       	rjmp	80002e40 <flashc_memcpy+0xb0>
80002e3c:	3f fc       	mov	r12,-1
80002e3e:	c5 1e       	rcall	80002ae0 <flashc_write_page>
80002e40:	68 08       	ld.w	r8,r4[0x0]
80002e42:	10 41       	or	r1,r8
80002e44:	58 06       	cp.w	r6,0
80002e46:	cc 01       	brne	80002dc6 <flashc_memcpy+0x36>
80002e48:	e0 68 00 bc 	mov	r8,188
80002e4c:	0e 9c       	mov	r12,r7
80002e4e:	91 01       	st.w	r8[0x0],r1
80002e50:	2f cd       	sub	sp,-16
80002e52:	d8 32       	popm	r0-r7,pc

80002e54 <gpio_enable_module_pin>:
80002e54:	f8 08 16 05 	lsr	r8,r12,0x5
80002e58:	a9 78       	lsl	r8,0x9
80002e5a:	e0 28 e0 00 	sub	r8,57344
80002e5e:	58 7b       	cp.w	r11,7
80002e60:	e0 8b 00 08 	brhi	80002e70 <gpio_enable_module_pin+0x1c>
80002e64:	f3 dc c0 05 	bfextu	r9,r12,0x0,0x5
80002e68:	fe ca d0 20 	sub	r10,pc,-12256
80002e6c:	f4 0b 03 2f 	ld.w	pc,r10[r11<<0x2]
80002e70:	5e ff       	retal	1
80002e72:	30 1a       	mov	r10,1
80002e74:	f4 09 09 49 	lsl	r9,r10,r9
80002e78:	91 69       	st.w	r8[0x18],r9
80002e7a:	c0 58       	rjmp	80002e84 <gpio_enable_module_pin+0x30>
80002e7c:	30 1a       	mov	r10,1
80002e7e:	f4 09 09 49 	lsl	r9,r10,r9
80002e82:	91 59       	st.w	r8[0x14],r9
80002e84:	91 a9       	st.w	r8[0x28],r9
80002e86:	91 e9       	st.w	r8[0x38],r9
80002e88:	c2 28       	rjmp	80002ecc <gpio_enable_module_pin+0x78>
80002e8a:	30 1a       	mov	r10,1
80002e8c:	f4 09 09 49 	lsl	r9,r10,r9
80002e90:	91 69       	st.w	r8[0x18],r9
80002e92:	c0 58       	rjmp	80002e9c <gpio_enable_module_pin+0x48>
80002e94:	30 1a       	mov	r10,1
80002e96:	f4 09 09 49 	lsl	r9,r10,r9
80002e9a:	91 59       	st.w	r8[0x14],r9
80002e9c:	91 99       	st.w	r8[0x24],r9
80002e9e:	cf 4b       	rjmp	80002e86 <gpio_enable_module_pin+0x32>
80002ea0:	30 1a       	mov	r10,1
80002ea2:	f4 09 09 49 	lsl	r9,r10,r9
80002ea6:	91 69       	st.w	r8[0x18],r9
80002ea8:	c0 58       	rjmp	80002eb2 <gpio_enable_module_pin+0x5e>
80002eaa:	30 1a       	mov	r10,1
80002eac:	f4 09 09 49 	lsl	r9,r10,r9
80002eb0:	91 59       	st.w	r8[0x14],r9
80002eb2:	91 a9       	st.w	r8[0x28],r9
80002eb4:	c0 b8       	rjmp	80002eca <gpio_enable_module_pin+0x76>
80002eb6:	30 1a       	mov	r10,1
80002eb8:	f4 09 09 49 	lsl	r9,r10,r9
80002ebc:	91 69       	st.w	r8[0x18],r9
80002ebe:	c0 58       	rjmp	80002ec8 <gpio_enable_module_pin+0x74>
80002ec0:	30 1a       	mov	r10,1
80002ec2:	f4 09 09 49 	lsl	r9,r10,r9
80002ec6:	91 59       	st.w	r8[0x14],r9
80002ec8:	91 99       	st.w	r8[0x24],r9
80002eca:	91 d9       	st.w	r8[0x34],r9
80002ecc:	30 19       	mov	r9,1
80002ece:	f2 0c 09 4c 	lsl	r12,r9,r12
80002ed2:	91 2c       	st.w	r8[0x8],r12
80002ed4:	5e fd       	retal	0
80002ed6:	d7 03       	nop

80002ed8 <gpio_enable_module>:
80002ed8:	d4 21       	pushm	r4-r7,lr
80002eda:	30 07       	mov	r7,0
80002edc:	18 96       	mov	r6,r12
80002ede:	16 94       	mov	r4,r11
80002ee0:	0e 95       	mov	r5,r7
80002ee2:	c0 78       	rjmp	80002ef0 <gpio_enable_module+0x18>
80002ee4:	6c 1b       	ld.w	r11,r6[0x4]
80002ee6:	6c 0c       	ld.w	r12,r6[0x0]
80002ee8:	2f f7       	sub	r7,-1
80002eea:	2f 86       	sub	r6,-8
80002eec:	cb 4f       	rcall	80002e54 <gpio_enable_module_pin>
80002eee:	18 45       	or	r5,r12
80002ef0:	08 37       	cp.w	r7,r4
80002ef2:	cf 93       	brcs	80002ee4 <gpio_enable_module+0xc>
80002ef4:	0a 9c       	mov	r12,r5
80002ef6:	d8 22       	popm	r4-r7,pc

80002ef8 <gpio_configure_pin>:
80002ef8:	f8 08 16 05 	lsr	r8,r12,0x5
80002efc:	16 9a       	mov	r10,r11
80002efe:	a9 78       	lsl	r8,0x9
80002f00:	e2 1a 00 08 	andl	r10,0x8,COH
80002f04:	e0 28 e0 00 	sub	r8,57344
80002f08:	f3 dc c0 05 	bfextu	r9,r12,0x0,0x5
80002f0c:	58 0a       	cp.w	r10,0
80002f0e:	c0 70       	breq	80002f1c <gpio_configure_pin+0x24>
80002f10:	30 1a       	mov	r10,1
80002f12:	f4 09 09 49 	lsl	r9,r10,r9
80002f16:	f1 49 00 84 	st.w	r8[132],r9
80002f1a:	c0 68       	rjmp	80002f26 <gpio_configure_pin+0x2e>
80002f1c:	30 1a       	mov	r10,1
80002f1e:	f4 09 09 49 	lsl	r9,r10,r9
80002f22:	f1 49 00 88 	st.w	r8[136],r9
80002f26:	16 9a       	mov	r10,r11
80002f28:	f3 dc c0 05 	bfextu	r9,r12,0x0,0x5
80002f2c:	e2 1a 00 04 	andl	r10,0x4,COH
80002f30:	c0 70       	breq	80002f3e <gpio_configure_pin+0x46>
80002f32:	30 1a       	mov	r10,1
80002f34:	f4 09 09 49 	lsl	r9,r10,r9
80002f38:	f1 49 00 74 	st.w	r8[116],r9
80002f3c:	c0 68       	rjmp	80002f48 <gpio_configure_pin+0x50>
80002f3e:	30 1a       	mov	r10,1
80002f40:	f4 09 09 49 	lsl	r9,r10,r9
80002f44:	f1 49 00 78 	st.w	r8[120],r9
80002f48:	16 9a       	mov	r10,r11
80002f4a:	f3 dc c0 05 	bfextu	r9,r12,0x0,0x5
80002f4e:	e2 1a 00 40 	andl	r10,0x40,COH
80002f52:	c0 70       	breq	80002f60 <gpio_configure_pin+0x68>
80002f54:	30 1a       	mov	r10,1
80002f56:	f4 09 09 49 	lsl	r9,r10,r9
80002f5a:	f1 49 00 e4 	st.w	r8[228],r9
80002f5e:	c0 68       	rjmp	80002f6a <gpio_configure_pin+0x72>
80002f60:	30 1a       	mov	r10,1
80002f62:	f4 09 09 49 	lsl	r9,r10,r9
80002f66:	f1 49 00 e8 	st.w	r8[232],r9
80002f6a:	16 9a       	mov	r10,r11
80002f6c:	f3 dc c0 05 	bfextu	r9,r12,0x0,0x5
80002f70:	e2 1a 00 10 	andl	r10,0x10,COH
80002f74:	c0 70       	breq	80002f82 <gpio_configure_pin+0x8a>
80002f76:	30 1a       	mov	r10,1
80002f78:	f4 09 09 49 	lsl	r9,r10,r9
80002f7c:	f1 49 01 04 	st.w	r8[260],r9
80002f80:	c0 68       	rjmp	80002f8c <gpio_configure_pin+0x94>
80002f82:	30 1a       	mov	r10,1
80002f84:	f4 09 09 49 	lsl	r9,r10,r9
80002f88:	f1 49 01 08 	st.w	r8[264],r9
80002f8c:	16 9a       	mov	r10,r11
80002f8e:	f3 dc c0 05 	bfextu	r9,r12,0x0,0x5
80002f92:	e2 1a 00 20 	andl	r10,0x20,COH
80002f96:	c0 70       	breq	80002fa4 <gpio_configure_pin+0xac>
80002f98:	30 1a       	mov	r10,1
80002f9a:	f4 09 09 49 	lsl	r9,r10,r9
80002f9e:	f1 49 01 14 	st.w	r8[276],r9
80002fa2:	c0 68       	rjmp	80002fae <gpio_configure_pin+0xb6>
80002fa4:	30 1a       	mov	r10,1
80002fa6:	f4 09 09 49 	lsl	r9,r10,r9
80002faa:	f1 49 01 18 	st.w	r8[280],r9
80002fae:	ed bb 00 07 	bld	r11,0x7
80002fb2:	c2 21       	brne	80002ff6 <gpio_configure_pin+0xfe>
80002fb4:	16 99       	mov	r9,r11
80002fb6:	e2 19 01 80 	andl	r9,0x180,COH
80002fba:	c0 70       	breq	80002fc8 <gpio_configure_pin+0xd0>
80002fbc:	30 19       	mov	r9,1
80002fbe:	f2 0c 09 49 	lsl	r9,r9,r12
80002fc2:	f1 49 00 a8 	st.w	r8[168],r9
80002fc6:	c0 a8       	rjmp	80002fda <gpio_configure_pin+0xe2>
80002fc8:	16 99       	mov	r9,r11
80002fca:	e2 19 02 80 	andl	r9,0x280,COH
80002fce:	c0 90       	breq	80002fe0 <gpio_configure_pin+0xe8>
80002fd0:	30 19       	mov	r9,1
80002fd2:	f2 0c 09 49 	lsl	r9,r9,r12
80002fd6:	f1 49 00 a4 	st.w	r8[164],r9
80002fda:	f1 49 00 b8 	st.w	r8[184],r9
80002fde:	c0 c8       	rjmp	80002ff6 <gpio_configure_pin+0xfe>
80002fe0:	16 99       	mov	r9,r11
80002fe2:	e2 19 03 80 	andl	r9,0x380,COH
80002fe6:	c0 80       	breq	80002ff6 <gpio_configure_pin+0xfe>
80002fe8:	30 19       	mov	r9,1
80002fea:	f2 0c 09 49 	lsl	r9,r9,r12
80002fee:	f1 49 00 a8 	st.w	r8[168],r9
80002ff2:	f1 49 00 b4 	st.w	r8[180],r9
80002ff6:	ed bb 00 00 	bld	r11,0x0
80002ffa:	c1 81       	brne	8000302a <gpio_configure_pin+0x132>
80002ffc:	e2 1b 00 02 	andl	r11,0x2,COH
80003000:	f3 dc c0 05 	bfextu	r9,r12,0x0,0x5
80003004:	58 0b       	cp.w	r11,0
80003006:	c0 70       	breq	80003014 <gpio_configure_pin+0x11c>
80003008:	30 1a       	mov	r10,1
8000300a:	f4 09 09 49 	lsl	r9,r10,r9
8000300e:	f1 49 00 54 	st.w	r8[84],r9
80003012:	c0 68       	rjmp	8000301e <gpio_configure_pin+0x126>
80003014:	30 1a       	mov	r10,1
80003016:	f4 09 09 49 	lsl	r9,r10,r9
8000301a:	f1 49 00 58 	st.w	r8[88],r9
8000301e:	30 19       	mov	r9,1
80003020:	f2 0c 09 49 	lsl	r9,r9,r12
80003024:	f1 49 00 44 	st.w	r8[68],r9
80003028:	c0 68       	rjmp	80003034 <gpio_configure_pin+0x13c>
8000302a:	30 19       	mov	r9,1
8000302c:	f2 0c 09 49 	lsl	r9,r9,r12
80003030:	f1 49 00 48 	st.w	r8[72],r9
80003034:	30 19       	mov	r9,1
80003036:	f2 0c 09 4c 	lsl	r12,r9,r12
8000303a:	91 1c       	st.w	r8[0x4],r12
8000303c:	5e fc       	retal	r12

8000303e <gpio_get_pin_value>:
8000303e:	f8 08 16 05 	lsr	r8,r12,0x5
80003042:	a9 78       	lsl	r8,0x9
80003044:	e0 28 e0 00 	sub	r8,57344
80003048:	71 88       	ld.w	r8,r8[0x60]
8000304a:	f0 0c 0a 4c 	lsr	r12,r8,r12
8000304e:	f9 dc c0 01 	bfextu	r12,r12,0x0,0x1
80003052:	5e fc       	retal	r12

80003054 <gpio_set_pin_high>:
80003054:	30 18       	mov	r8,1
80003056:	f0 0c 09 48 	lsl	r8,r8,r12
8000305a:	a5 9c       	lsr	r12,0x5
8000305c:	a9 7c       	lsl	r12,0x9
8000305e:	e0 2c e0 00 	sub	r12,57344
80003062:	f9 48 00 54 	st.w	r12[84],r8
80003066:	5e fc       	retal	r12

80003068 <gpio_set_pin_low>:
80003068:	30 18       	mov	r8,1
8000306a:	f0 0c 09 48 	lsl	r8,r8,r12
8000306e:	a5 9c       	lsr	r12,0x5
80003070:	a9 7c       	lsl	r12,0x9
80003072:	e0 2c e0 00 	sub	r12,57344
80003076:	f9 48 00 58 	st.w	r12[88],r8
8000307a:	5e fc       	retal	r12

8000307c <gpio_toggle_pin>:
8000307c:	30 18       	mov	r8,1
8000307e:	f0 0c 09 48 	lsl	r8,r8,r12
80003082:	a5 9c       	lsr	r12,0x5
80003084:	a9 7c       	lsl	r12,0x9
80003086:	e0 2c e0 00 	sub	r12,57344
8000308a:	f9 48 00 5c 	st.w	r12[92],r8
8000308e:	5e fc       	retal	r12

80003090 <_unhandled_interrupt>:
80003090:	c0 08       	rjmp	80003090 <_unhandled_interrupt>
80003092:	d7 03       	nop

80003094 <INTC_register_interrupt>:
80003094:	f3 db c0 05 	bfextu	r9,r11,0x0,0x5
80003098:	fe c8 d2 30 	sub	r8,pc,-11728
8000309c:	a5 9b       	lsr	r11,0x5
8000309e:	f0 0b 00 38 	add	r8,r8,r11<<0x3
800030a2:	70 18       	ld.w	r8,r8[0x4]
800030a4:	f0 09 09 2c 	st.w	r8[r9<<0x2],r12
800030a8:	58 0a       	cp.w	r10,0
800030aa:	c0 c1       	brne	800030c2 <INTC_register_interrupt+0x2e>
800030ac:	fe 78 00 00 	mov	r8,-65536
800030b0:	fe c9 d4 b0 	sub	r9,pc,-11088
800030b4:	fe ca d3 b0 	sub	r10,pc,-11344
800030b8:	f4 09 01 09 	sub	r9,r10,r9
800030bc:	f0 0b 09 29 	st.w	r8[r11<<0x2],r9
800030c0:	5e fc       	retal	r12
800030c2:	58 1a       	cp.w	r10,1
800030c4:	c0 91       	brne	800030d6 <INTC_register_interrupt+0x42>
800030c6:	fe c8 d4 c6 	sub	r8,pc,-11066
800030ca:	fe c9 d3 b8 	sub	r9,pc,-11336
800030ce:	f2 08 01 08 	sub	r8,r9,r8
800030d2:	bf a8       	sbr	r8,0x1e
800030d4:	c1 18       	rjmp	800030f6 <INTC_register_interrupt+0x62>
800030d6:	fe c8 d4 d6 	sub	r8,pc,-11050
800030da:	58 2a       	cp.w	r10,2
800030dc:	c0 71       	brne	800030ea <INTC_register_interrupt+0x56>
800030de:	fe c9 d3 be 	sub	r9,pc,-11330
800030e2:	f2 08 01 08 	sub	r8,r9,r8
800030e6:	bf b8       	sbr	r8,0x1f
800030e8:	c0 78       	rjmp	800030f6 <INTC_register_interrupt+0x62>
800030ea:	fe c9 d3 bc 	sub	r9,pc,-11332
800030ee:	f2 08 01 08 	sub	r8,r9,r8
800030f2:	ea 18 c0 00 	orh	r8,0xc000
800030f6:	fe 79 00 00 	mov	r9,-65536
800030fa:	f2 0b 09 28 	st.w	r9[r11<<0x2],r8
800030fe:	5e fc       	retal	r12

80003100 <INTC_init_interrupts>:
80003100:	d4 21       	pushm	r4-r7,lr
80003102:	fe c8 d5 02 	sub	r8,pc,-11006
80003106:	e3 b8 00 01 	mtsr	0x4,r8
8000310a:	fe ce d4 06 	sub	lr,pc,-11258
8000310e:	fe c9 d2 a6 	sub	r9,pc,-11610
80003112:	10 1e       	sub	lr,r8
80003114:	fe cc 00 84 	sub	r12,pc,132
80003118:	30 08       	mov	r8,0
8000311a:	fe 7b 00 00 	mov	r11,-65536
8000311e:	c0 f8       	rjmp	8000313c <INTC_init_interrupts+0x3c>
80003120:	72 16       	ld.w	r6,r9[0x4]
80003122:	ec 0a 00 26 	add	r6,r6,r10<<0x2
80003126:	2f fa       	sub	r10,-1
80003128:	8d 0c       	st.w	r6[0x0],r12
8000312a:	0e 3a       	cp.w	r10,r7
8000312c:	cf a3       	brcs	80003120 <INTC_init_interrupts+0x20>
8000312e:	f6 08 09 2e 	st.w	r11[r8<<0x2],lr
80003132:	2f 89       	sub	r9,-8
80003134:	2f f8       	sub	r8,-1
80003136:	e0 48 00 2f 	cp.w	r8,47
8000313a:	c0 40       	breq	80003142 <INTC_init_interrupts+0x42>
8000313c:	30 0a       	mov	r10,0
8000313e:	72 07       	ld.w	r7,r9[0x0]
80003140:	cf 5b       	rjmp	8000312a <INTC_init_interrupts+0x2a>
80003142:	d8 22       	popm	r4-r7,pc

80003144 <_get_interrupt_handler>:
80003144:	e0 68 00 83 	mov	r8,131
80003148:	fe 79 00 00 	mov	r9,-65536
8000314c:	f0 0c 01 0c 	sub	r12,r8,r12
80003150:	f2 0c 03 28 	ld.w	r8,r9[r12<<0x2]
80003154:	f0 ca ff c0 	sub	r10,r8,-64
80003158:	f2 0a 03 2c 	ld.w	r12,r9[r10<<0x2]
8000315c:	58 0c       	cp.w	r12,0
8000315e:	5e 0c       	reteq	r12
80003160:	fe c9 d2 f8 	sub	r9,pc,-11528
80003164:	f8 0c 12 00 	clz	r12,r12
80003168:	f2 08 00 38 	add	r8,r9,r8<<0x3
8000316c:	f8 0c 11 1f 	rsub	r12,r12,31
80003170:	70 18       	ld.w	r8,r8[0x4]
80003172:	f0 0c 03 2c 	ld.w	r12,r8[r12<<0x2]
80003176:	5e fc       	retal	r12

80003178 <pm_set_mclk_source>:
80003178:	e1 b8 00 00 	mfsr	r8,0x0
8000317c:	d3 03       	ssrf	0x10
8000317e:	fe 79 04 00 	mov	r9,-64512
80003182:	fc 1a aa 00 	movh	r10,0xaa00
80003186:	f3 4a 00 58 	st.w	r9[88],r10
8000318a:	93 0c       	st.w	r9[0x0],r12
8000318c:	ed b8 00 10 	bld	r8,0x10
80003190:	c0 20       	breq	80003194 <pm_set_mclk_source+0x1c>
80003192:	d5 03       	csrf	0x10
80003194:	5e fd       	retal	0

80003196 <scif_start_gclk>:
80003196:	d4 01       	pushm	lr
80003198:	fe 78 08 00 	mov	r8,-63488
8000319c:	f8 c9 ff e7 	sub	r9,r12,-25
800031a0:	f0 09 03 2c 	ld.w	r12,r8[r9<<0x2]
800031a4:	f9 dc c0 01 	bfextu	r12,r12,0x0,0x1
800031a8:	c0 20       	breq	800031ac <scif_start_gclk+0x16>
800031aa:	dc 0a       	popm	pc,r12=-1
800031ac:	76 0a       	ld.w	r10,r11[0x0]
800031ae:	76 1e       	ld.w	lr,r11[0x4]
800031b0:	a9 6a       	lsl	r10,0x8
800031b2:	76 2b       	ld.w	r11,r11[0x8]
800031b4:	e2 1a 0f 00 	andl	r10,0xf00,COH
800031b8:	b1 6e       	lsl	lr,0x10
800031ba:	a1 7b       	lsl	r11,0x1
800031bc:	e6 1e 00 ff 	andh	lr,0xff,COH
800031c0:	e2 1b 00 02 	andl	r11,0x2,COH
800031c4:	fd eb 10 0b 	or	r11,lr,r11
800031c8:	a1 ab       	sbr	r11,0x0
800031ca:	f7 ea 10 0a 	or	r10,r11,r10
800031ce:	f0 09 09 2a 	st.w	r8[r9<<0x2],r10
800031d2:	d8 02       	popm	pc

800031d4 <scif_start_rc8M>:
800031d4:	e1 b8 00 00 	mfsr	r8,0x0
800031d8:	d3 03       	ssrf	0x10
800031da:	fe 7a 08 00 	mov	r10,-63488
800031de:	34 89       	mov	r9,72
800031e0:	ea 19 aa 00 	orh	r9,0xaa00
800031e4:	95 69       	st.w	r10[0x18],r9
800031e6:	e0 69 02 00 	mov	r9,512
800031ea:	ea 19 80 80 	orh	r9,0x8080
800031ee:	13 99       	ld.ub	r9,r9[0x1]
800031f0:	b9 a9       	sbr	r9,0x18
800031f2:	f5 49 00 48 	st.w	r10[72],r9
800031f6:	ed b8 00 10 	bld	r8,0x10
800031fa:	5e 0c       	reteq	r12
800031fc:	d5 03       	csrf	0x10
800031fe:	5e fc       	retal	r12

80003200 <twim_master_interrupt_handler>:
80003200:	e0 68 02 88 	mov	r8,648
80003204:	e0 6a 02 9c 	mov	r10,668
80003208:	70 08       	ld.w	r8,r8[0x0]
8000320a:	70 79       	ld.w	r9,r8[0x1c]
8000320c:	74 0a       	ld.w	r10,r10[0x0]
8000320e:	f5 e9 00 09 	and	r9,r10,r9
80003212:	12 9a       	mov	r10,r9
80003214:	e2 1a 07 00 	andl	r10,0x700,COH
80003218:	c1 20       	breq	8000323c <twim_master_interrupt_handler+0x3c>
8000321a:	e0 6a 02 94 	mov	r10,660
8000321e:	e2 19 03 00 	andl	r9,0x300,COH
80003222:	f9 b9 01 fc 	movne	r9,-4
80003226:	f9 b9 00 fe 	moveq	r9,-2
8000322a:	95 09       	st.w	r10[0x0],r9
8000322c:	30 09       	mov	r9,0
8000322e:	70 3a       	ld.w	r10,r8[0xc]
80003230:	f5 d9 d1 e1 	bfins	r10,r9,0xf,0x1
80003234:	91 3a       	st.w	r8[0xc],r10
80003236:	3f fa       	mov	r10,-1
80003238:	91 ba       	st.w	r8[0x2c],r10
8000323a:	c1 38       	rjmp	80003260 <twim_master_interrupt_handler+0x60>
8000323c:	ed b9 00 00 	bld	r9,0x0
80003240:	c1 51       	brne	8000326a <twim_master_interrupt_handler+0x6a>
80003242:	70 5b       	ld.w	r11,r8[0x14]
80003244:	e0 6a 02 8c 	mov	r10,652
80003248:	74 09       	ld.w	r9,r10[0x0]
8000324a:	12 cb       	st.b	r9++,r11
8000324c:	95 09       	st.w	r10[0x0],r9
8000324e:	e0 69 02 90 	mov	r9,656
80003252:	72 0a       	ld.w	r10,r9[0x0]
80003254:	20 1a       	sub	r10,1
80003256:	93 0a       	st.w	r9[0x0],r10
80003258:	72 09       	ld.w	r9,r9[0x0]
8000325a:	58 09       	cp.w	r9,0
8000325c:	c2 e1       	brne	800032b8 <twim_master_interrupt_handler+0xb8>
8000325e:	30 1a       	mov	r10,1
80003260:	91 9a       	st.w	r8[0x24],r10
80003262:	e0 68 02 a0 	mov	r8,672
80003266:	b0 89       	st.b	r8[0x0],r9
80003268:	d6 03       	rete
8000326a:	ed b9 00 01 	bld	r9,0x1
8000326e:	c2 51       	brne	800032b8 <twim_master_interrupt_handler+0xb8>
80003270:	e0 69 02 a8 	mov	r9,680
80003274:	72 0a       	ld.w	r10,r9[0x0]
80003276:	58 0a       	cp.w	r10,0
80003278:	c0 71       	brne	80003286 <twim_master_interrupt_handler+0x86>
8000327a:	30 29       	mov	r9,2
8000327c:	91 99       	st.w	r8[0x24],r9
8000327e:	e0 68 02 a0 	mov	r8,672
80003282:	b0 8a       	st.b	r8[0x0],r10
80003284:	d6 03       	rete
80003286:	e0 6a 02 98 	mov	r10,664
8000328a:	74 0b       	ld.w	r11,r10[0x0]
8000328c:	17 3c       	ld.ub	r12,r11++
8000328e:	91 6c       	st.w	r8[0x18],r12
80003290:	95 0b       	st.w	r10[0x0],r11
80003292:	72 08       	ld.w	r8,r9[0x0]
80003294:	20 18       	sub	r8,1
80003296:	93 08       	st.w	r9[0x0],r8
80003298:	72 0b       	ld.w	r11,r9[0x0]
8000329a:	58 0b       	cp.w	r11,0
8000329c:	c0 e1       	brne	800032b8 <twim_master_interrupt_handler+0xb8>
8000329e:	e0 68 02 a0 	mov	r8,672
800032a2:	11 8c       	ld.ub	r12,r8[0x0]
800032a4:	58 0c       	cp.w	r12,0
800032a6:	c0 90       	breq	800032b8 <twim_master_interrupt_handler+0xb8>
800032a8:	b0 8b       	st.b	r8[0x0],r11
800032aa:	e0 68 02 a4 	mov	r8,676
800032ae:	70 08       	ld.w	r8,r8[0x0]
800032b0:	70 3b       	ld.w	r11,r8[0xc]
800032b2:	93 0b       	st.w	r9[0x0],r11
800032b4:	70 28       	ld.w	r8,r8[0x8]
800032b6:	95 08       	st.w	r10[0x0],r8
800032b8:	d6 03       	rete
800032ba:	d7 03       	nop

800032bc <twim_set_speed>:
800032bc:	d4 21       	pushm	r4-r7,lr
800032be:	f4 0b 0d 0a 	divu	r10,r10,r11
800032c2:	30 08       	mov	r8,0
800032c4:	f4 09 16 01 	lsr	r9,r10,0x1
800032c8:	30 7b       	mov	r11,7
800032ca:	10 9a       	mov	r10,r8
800032cc:	c0 48       	rjmp	800032d4 <twim_set_speed+0x18>
800032ce:	f1 d6 c0 08 	bfextu	r8,r6,0x0,0x8
800032d2:	a1 99       	lsr	r9,0x1
800032d4:	f0 0b 18 00 	cp.b	r11,r8
800032d8:	f9 b7 02 01 	movhs	r7,1
800032dc:	f9 b7 03 00 	movlo	r7,0
800032e0:	e0 49 00 ff 	cp.w	r9,255
800032e4:	f9 be 0b 01 	movhi	lr,1
800032e8:	f9 be 08 00 	movls	lr,0
800032ec:	0e 95       	mov	r5,r7
800032ee:	f0 c6 ff ff 	sub	r6,r8,-1
800032f2:	eb ee 00 0e 	and	lr,r5,lr
800032f6:	f4 0e 18 00 	cp.b	lr,r10
800032fa:	ce a1       	brne	800032ce <twim_set_speed+0x12>
800032fc:	30 7a       	mov	r10,7
800032fe:	f4 08 18 00 	cp.b	r8,r10
80003302:	e0 88 00 04 	brls	8000330a <twim_set_speed+0x4e>
80003306:	3f 8c       	mov	r12,-8
80003308:	d8 22       	popm	r4-r7,pc
8000330a:	f2 0a 16 01 	lsr	r10,r9,0x1
8000330e:	f2 0a 01 0b 	sub	r11,r9,r10
80003312:	f5 e9 11 09 	or	r9,r10,r9<<0x10
80003316:	f3 eb 10 89 	or	r9,r9,r11<<0x8
8000331a:	f3 e8 11 c8 	or	r8,r9,r8<<0x1c
8000331e:	99 18       	st.w	r12[0x4],r8
80003320:	d8 2a       	popm	r4-r7,pc,r12=0
80003322:	d7 03       	nop

80003324 <twim_write>:
80003324:	d4 21       	pushm	r4-r7,lr
80003326:	30 1e       	mov	lr,1
80003328:	99 0e       	st.w	r12[0x0],lr
8000332a:	e0 6e 00 80 	mov	lr,128
8000332e:	99 0e       	st.w	r12[0x0],lr
80003330:	30 2e       	mov	lr,2
80003332:	99 0e       	st.w	r12[0x0],lr
80003334:	e0 6e 02 88 	mov	lr,648
80003338:	9d 0c       	st.w	lr[0x0],r12
8000333a:	e1 be 00 00 	mfsr	lr,0x0
8000333e:	ed be 00 10 	bld	lr,0x10
80003342:	c0 20       	breq	80003346 <twim_write+0x22>
80003344:	d3 03       	ssrf	0x10
80003346:	3f fe       	mov	lr,-1
80003348:	99 9e       	st.w	r12[0x24],lr
8000334a:	99 be       	st.w	r12[0x2c],lr
8000334c:	e0 6e 02 a8 	mov	lr,680
80003350:	9d 0a       	st.w	lr[0x0],r10
80003352:	30 07       	mov	r7,0
80003354:	e0 6e 02 a0 	mov	lr,672
80003358:	bc 87       	st.b	lr[0x0],r7
8000335a:	e0 6e 02 98 	mov	lr,664
8000335e:	e0 67 02 94 	mov	r7,660
80003362:	9d 0b       	st.w	lr[0x0],r11
80003364:	30 0b       	mov	r11,0
80003366:	8f 0b       	st.w	r7[0x0],r11
80003368:	e0 6e 02 88 	mov	lr,648
8000336c:	b1 6a       	lsl	r10,0x10
8000336e:	7c 0b       	ld.w	r11,lr[0x0]
80003370:	e8 1a e0 00 	orl	r10,0xe000
80003374:	f5 e9 10 1a 	or	r10,r10,r9<<0x1
80003378:	f5 e8 10 ba 	or	r10,r10,r8<<0xb
8000337c:	97 3a       	st.w	r11[0xc],r10
8000337e:	e0 68 02 9c 	mov	r8,668
80003382:	e0 69 03 02 	mov	r9,770
80003386:	91 09       	st.w	r8[0x0],r9
80003388:	70 08       	ld.w	r8,r8[0x0]
8000338a:	97 88       	st.w	r11[0x20],r8
8000338c:	30 18       	mov	r8,1
8000338e:	97 08       	st.w	r11[0x0],r8
80003390:	d5 03       	csrf	0x10
80003392:	6e 08       	ld.w	r8,r7[0x0]
80003394:	58 08       	cp.w	r8,0
80003396:	c0 61       	brne	800033a2 <twim_write+0x7e>
80003398:	7c 08       	ld.w	r8,lr[0x0]
8000339a:	70 78       	ld.w	r8,r8[0x1c]
8000339c:	ed b8 00 04 	bld	r8,0x4
800033a0:	c0 d1       	brne	800033ba <twim_write+0x96>
800033a2:	30 28       	mov	r8,2
800033a4:	99 08       	st.w	r12[0x0],r8
800033a6:	e0 68 02 94 	mov	r8,660
800033aa:	70 09       	ld.w	r9,r8[0x0]
800033ac:	5b c9       	cp.w	r9,-4
800033ae:	c0 50       	breq	800033b8 <twim_write+0x94>
800033b0:	70 08       	ld.w	r8,r8[0x0]
800033b2:	5b e8       	cp.w	r8,-2
800033b4:	c0 20       	breq	800033b8 <twim_write+0x94>
800033b6:	d8 2a       	popm	r4-r7,pc,r12=0
800033b8:	dc 2a       	popm	r4-r7,pc,r12=-1
800033ba:	fe cf ff fc 	sub	pc,pc,-4
800033be:	ce ab       	rjmp	80003392 <twim_write+0x6e>

800033c0 <twim_probe>:
800033c0:	d4 01       	pushm	lr
800033c2:	20 1d       	sub	sp,4
800033c4:	30 08       	mov	r8,0
800033c6:	16 99       	mov	r9,r11
800033c8:	ba 88       	st.b	sp[0x0],r8
800033ca:	1a 9b       	mov	r11,sp
800033cc:	30 08       	mov	r8,0
800033ce:	10 9a       	mov	r10,r8
800033d0:	ca af       	rcall	80003324 <twim_write>
800033d2:	2f fd       	sub	sp,-4
800033d4:	d8 02       	popm	pc
800033d6:	d7 03       	nop

800033d8 <twim_write_packet>:
800033d8:	d4 01       	pushm	lr
800033da:	30 18       	mov	r8,1
800033dc:	99 08       	st.w	r12[0x0],r8
800033de:	e0 68 00 80 	mov	r8,128
800033e2:	99 08       	st.w	r12[0x0],r8
800033e4:	30 28       	mov	r8,2
800033e6:	99 08       	st.w	r12[0x0],r8
800033e8:	e0 68 02 88 	mov	r8,648
800033ec:	91 0c       	st.w	r8[0x0],r12
800033ee:	e1 b8 00 00 	mfsr	r8,0x0
800033f2:	ed b8 00 10 	bld	r8,0x10
800033f6:	c0 20       	breq	800033fa <twim_write_packet+0x22>
800033f8:	d3 03       	ssrf	0x10
800033fa:	3f f8       	mov	r8,-1
800033fc:	99 98       	st.w	r12[0x24],r8
800033fe:	99 b8       	st.w	r12[0x2c],r8
80003400:	e0 69 02 94 	mov	r9,660
80003404:	30 08       	mov	r8,0
80003406:	93 08       	st.w	r9[0x0],r8
80003408:	e0 6a 07 02 	mov	r10,1794
8000340c:	e0 69 02 9c 	mov	r9,668
80003410:	93 0a       	st.w	r9[0x0],r10
80003412:	e0 6e 02 a0 	mov	lr,672
80003416:	bc 88       	st.b	lr[0x0],r8
80003418:	e0 6a 02 98 	mov	r10,664
8000341c:	17 f8       	ld.ub	r8,r11[0x7]
8000341e:	e0 69 02 a8 	mov	r9,680
80003422:	58 08       	cp.w	r8,0
80003424:	c0 b0       	breq	8000343a <twim_write_packet+0x62>
80003426:	93 08       	st.w	r9[0x0],r8
80003428:	f6 c9 ff fc 	sub	r9,r11,-4
8000342c:	95 09       	st.w	r10[0x0],r9
8000342e:	30 19       	mov	r9,1
80003430:	bc 89       	st.b	lr[0x0],r9
80003432:	e0 69 02 a4 	mov	r9,676
80003436:	93 0b       	st.w	r9[0x0],r11
80003438:	c0 58       	rjmp	80003442 <twim_write_packet+0x6a>
8000343a:	76 2e       	ld.w	lr,r11[0x8]
8000343c:	95 0e       	st.w	r10[0x0],lr
8000343e:	76 3a       	ld.w	r10,r11[0xc]
80003440:	93 0a       	st.w	r9[0x0],r10
80003442:	76 39       	ld.w	r9,r11[0xc]
80003444:	f0 09 00 09 	add	r9,r8,r9
80003448:	76 08       	ld.w	r8,r11[0x0]
8000344a:	a1 78       	lsl	r8,0x1
8000344c:	e8 18 e0 00 	orl	r8,0xe000
80003450:	f1 e9 11 08 	or	r8,r8,r9<<0x10
80003454:	e0 69 02 9c 	mov	r9,668
80003458:	99 38       	st.w	r12[0xc],r8
8000345a:	e0 68 02 88 	mov	r8,648
8000345e:	72 0a       	ld.w	r10,r9[0x0]
80003460:	70 09       	ld.w	r9,r8[0x0]
80003462:	93 8a       	st.w	r9[0x20],r10
80003464:	30 1a       	mov	r10,1
80003466:	93 0a       	st.w	r9[0x0],r10
80003468:	d5 03       	csrf	0x10
8000346a:	e0 69 02 94 	mov	r9,660
8000346e:	10 9a       	mov	r10,r8
80003470:	72 08       	ld.w	r8,r9[0x0]
80003472:	58 08       	cp.w	r8,0
80003474:	c0 61       	brne	80003480 <twim_write_packet+0xa8>
80003476:	74 08       	ld.w	r8,r10[0x0]
80003478:	70 78       	ld.w	r8,r8[0x1c]
8000347a:	ed b8 00 04 	bld	r8,0x4
8000347e:	c0 d1       	brne	80003498 <twim_write_packet+0xc0>
80003480:	30 28       	mov	r8,2
80003482:	99 08       	st.w	r12[0x0],r8
80003484:	e0 68 02 94 	mov	r8,660
80003488:	70 09       	ld.w	r9,r8[0x0]
8000348a:	5b c9       	cp.w	r9,-4
8000348c:	c0 50       	breq	80003496 <twim_write_packet+0xbe>
8000348e:	70 08       	ld.w	r8,r8[0x0]
80003490:	5b e8       	cp.w	r8,-2
80003492:	c0 20       	breq	80003496 <twim_write_packet+0xbe>
80003494:	d8 0a       	popm	pc,r12=0
80003496:	dc 0a       	popm	pc,r12=-1
80003498:	fe cf ff fc 	sub	pc,pc,-4
8000349c:	ce ab       	rjmp	80003470 <twim_write_packet+0x98>
8000349e:	d7 03       	nop

800034a0 <twim_read_packet>:
800034a0:	d4 21       	pushm	r4-r7,lr
800034a2:	30 28       	mov	r8,2
800034a4:	99 08       	st.w	r12[0x0],r8
800034a6:	e0 68 02 88 	mov	r8,648
800034aa:	91 0c       	st.w	r8[0x0],r12
800034ac:	e1 b8 00 00 	mfsr	r8,0x0
800034b0:	ed b8 00 10 	bld	r8,0x10
800034b4:	c0 20       	breq	800034b8 <twim_read_packet+0x18>
800034b6:	d3 03       	ssrf	0x10
800034b8:	3f f8       	mov	r8,-1
800034ba:	99 98       	st.w	r12[0x24],r8
800034bc:	99 b8       	st.w	r12[0x2c],r8
800034be:	e0 68 02 8c 	mov	r8,652
800034c2:	76 29       	ld.w	r9,r11[0x8]
800034c4:	91 09       	st.w	r8[0x0],r9
800034c6:	e0 68 02 90 	mov	r8,656
800034ca:	76 39       	ld.w	r9,r11[0xc]
800034cc:	91 09       	st.w	r8[0x0],r9
800034ce:	30 06       	mov	r6,0
800034d0:	e0 68 02 a0 	mov	r8,672
800034d4:	b0 86       	st.b	r8[0x0],r6
800034d6:	30 07       	mov	r7,0
800034d8:	e0 68 02 94 	mov	r8,660
800034dc:	91 07       	st.w	r8[0x0],r7
800034de:	e0 6e 02 a8 	mov	lr,680
800034e2:	e0 68 02 88 	mov	r8,648
800034e6:	17 f5       	ld.ub	r5,r11[0x7]
800034e8:	e0 6a 02 9c 	mov	r10,668
800034ec:	ec 05 18 00 	cp.b	r5,r6
800034f0:	c2 30       	breq	80003536 <twim_read_packet+0x96>
800034f2:	70 08       	ld.w	r8,r8[0x0]
800034f4:	30 19       	mov	r9,1
800034f6:	91 09       	st.w	r8[0x0],r9
800034f8:	e0 69 00 80 	mov	r9,128
800034fc:	91 09       	st.w	r8[0x0],r9
800034fe:	f6 c7 ff fc 	sub	r7,r11,-4
80003502:	30 29       	mov	r9,2
80003504:	91 09       	st.w	r8[0x0],r9
80003506:	e0 69 02 98 	mov	r9,664
8000350a:	93 07       	st.w	r9[0x0],r7
8000350c:	17 f7       	ld.ub	r7,r11[0x7]
8000350e:	9d 07       	st.w	lr[0x0],r7
80003510:	e0 69 07 03 	mov	r9,1795
80003514:	95 09       	st.w	r10[0x0],r9
80003516:	76 09       	ld.w	r9,r11[0x0]
80003518:	a1 79       	lsl	r9,0x1
8000351a:	e8 19 a0 00 	orl	r9,0xa000
8000351e:	f3 e7 11 09 	or	r9,r9,r7<<0x10
80003522:	91 39       	st.w	r8[0xc],r9
80003524:	76 39       	ld.w	r9,r11[0xc]
80003526:	76 0a       	ld.w	r10,r11[0x0]
80003528:	b1 69       	lsl	r9,0x10
8000352a:	f3 ea 10 19 	or	r9,r9,r10<<0x1
8000352e:	e8 19 e0 01 	orl	r9,0xe001
80003532:	91 49       	st.w	r8[0x10],r9
80003534:	c0 d8       	rjmp	8000354e <twim_read_packet+0xae>
80003536:	9d 07       	st.w	lr[0x0],r7
80003538:	e0 6e 07 01 	mov	lr,1793
8000353c:	95 0e       	st.w	r10[0x0],lr
8000353e:	b1 69       	lsl	r9,0x10
80003540:	70 0a       	ld.w	r10,r8[0x0]
80003542:	76 08       	ld.w	r8,r11[0x0]
80003544:	f3 e8 10 18 	or	r8,r9,r8<<0x1
80003548:	e8 18 e0 01 	orl	r8,0xe001
8000354c:	95 38       	st.w	r10[0xc],r8
8000354e:	e0 69 02 9c 	mov	r9,668
80003552:	e0 68 02 88 	mov	r8,648
80003556:	72 0a       	ld.w	r10,r9[0x0]
80003558:	70 09       	ld.w	r9,r8[0x0]
8000355a:	93 8a       	st.w	r9[0x20],r10
8000355c:	30 19       	mov	r9,1
8000355e:	99 09       	st.w	r12[0x0],r9
80003560:	d5 03       	csrf	0x10
80003562:	e0 69 02 94 	mov	r9,660
80003566:	10 9a       	mov	r10,r8
80003568:	72 08       	ld.w	r8,r9[0x0]
8000356a:	58 08       	cp.w	r8,0
8000356c:	c0 61       	brne	80003578 <twim_read_packet+0xd8>
8000356e:	74 08       	ld.w	r8,r10[0x0]
80003570:	70 78       	ld.w	r8,r8[0x1c]
80003572:	ed b8 00 04 	bld	r8,0x4
80003576:	c0 d1       	brne	80003590 <twim_read_packet+0xf0>
80003578:	30 28       	mov	r8,2
8000357a:	99 08       	st.w	r12[0x0],r8
8000357c:	e0 68 02 94 	mov	r8,660
80003580:	70 09       	ld.w	r9,r8[0x0]
80003582:	5b c9       	cp.w	r9,-4
80003584:	c0 50       	breq	8000358e <twim_read_packet+0xee>
80003586:	70 08       	ld.w	r8,r8[0x0]
80003588:	5b e8       	cp.w	r8,-2
8000358a:	c0 20       	breq	8000358e <twim_read_packet+0xee>
8000358c:	d8 2a       	popm	r4-r7,pc,r12=0
8000358e:	dc 2a       	popm	r4-r7,pc,r12=-1
80003590:	fe cf ff fc 	sub	pc,pc,-4
80003594:	ce ab       	rjmp	80003568 <twim_read_packet+0xc8>
80003596:	d7 03       	nop

80003598 <twim_master_init>:
80003598:	d4 21       	pushm	r4-r7,lr
8000359a:	18 97       	mov	r7,r12
8000359c:	16 96       	mov	r6,r11
8000359e:	e1 b8 00 00 	mfsr	r8,0x0
800035a2:	30 0a       	mov	r10,0
800035a4:	e0 69 02 94 	mov	r9,660
800035a8:	93 0a       	st.w	r9[0x0],r10
800035aa:	ee 18 00 01 	eorh	r8,0x1
800035ae:	f1 d8 c2 01 	bfextu	r8,r8,0x10,0x1
800035b2:	c0 20       	breq	800035b6 <twim_master_init+0x1e>
800035b4:	d3 03       	ssrf	0x10
800035b6:	3f f9       	mov	r9,-1
800035b8:	8f 99       	st.w	r7[0x24],r9
800035ba:	30 19       	mov	r9,1
800035bc:	8f 09       	st.w	r7[0x0],r9
800035be:	e0 69 00 80 	mov	r9,128
800035c2:	8f 09       	st.w	r7[0x0],r9
800035c4:	58 08       	cp.w	r8,0
800035c6:	c0 20       	breq	800035ca <twim_master_init+0x32>
800035c8:	d5 03       	csrf	0x10
800035ca:	3f f8       	mov	r8,-1
800035cc:	8f b8       	st.w	r7[0x2c],r8
800035ce:	e1 b5 00 00 	mfsr	r5,0x0
800035d2:	d3 03       	ssrf	0x10
800035d4:	30 1a       	mov	r10,1
800035d6:	e0 6b 03 20 	mov	r11,800
800035da:	fe cc 03 da 	sub	r12,pc,986
800035de:	fe b0 fd 5b 	rcall	80003094 <INTC_register_interrupt>
800035e2:	e6 15 00 01 	andh	r5,0x1,COH
800035e6:	c0 21       	brne	800035ea <twim_master_init+0x52>
800035e8:	d5 03       	csrf	0x10
800035ea:	30 08       	mov	r8,0
800035ec:	ed 39 00 0c 	ld.ub	r9,r6[12]
800035f0:	f0 09 18 00 	cp.b	r9,r8
800035f4:	f9 b8 01 10 	movne	r8,16
800035f8:	ef f8 1a 00 	st.wne	r7[0x0],r8
800035fc:	f9 b8 01 ff 	movne	r8,-1
80003600:	ef f8 1a 02 	st.wne	r7[0x8],r8
80003604:	0e 9c       	mov	r12,r7
80003606:	6c 0a       	ld.w	r10,r6[0x0]
80003608:	6c 1b       	ld.w	r11,r6[0x4]
8000360a:	c5 9e       	rcall	800032bc <twim_set_speed>
8000360c:	5b 8c       	cp.w	r12,-8
8000360e:	c0 e0       	breq	8000362a <twim_master_init+0x92>
80003610:	6c 2b       	ld.w	r11,r6[0x8]
80003612:	0e 9c       	mov	r12,r7
80003614:	cd 6e       	rcall	800033c0 <twim_probe>
80003616:	e0 68 02 94 	mov	r8,660
8000361a:	70 09       	ld.w	r9,r8[0x0]
8000361c:	5b c9       	cp.w	r9,-4
8000361e:	c0 50       	breq	80003628 <twim_master_init+0x90>
80003620:	70 08       	ld.w	r8,r8[0x0]
80003622:	5b e8       	cp.w	r8,-2
80003624:	c0 20       	breq	80003628 <twim_master_init+0x90>
80003626:	d8 2a       	popm	r4-r7,pc,r12=0
80003628:	3f fc       	mov	r12,-1
8000362a:	d8 22       	popm	r4-r7,pc

8000362c <usart_set_async_baudrate>:
8000362c:	d4 01       	pushm	lr
8000362e:	f6 0e 15 04 	lsl	lr,r11,0x4
80003632:	1c 3a       	cp.w	r10,lr
80003634:	f9 be 02 10 	movhs	lr,16
80003638:	f9 be 03 08 	movlo	lr,8
8000363c:	fc 0b 02 4b 	mul	r11,lr,r11
80003640:	f6 08 16 01 	lsr	r8,r11,0x1
80003644:	f0 0a 00 3a 	add	r10,r8,r10<<0x3
80003648:	f4 0b 0d 0a 	divu	r10,r10,r11
8000364c:	f4 09 16 03 	lsr	r9,r10,0x3
80003650:	f2 c8 00 01 	sub	r8,r9,1
80003654:	e0 48 ff fe 	cp.w	r8,65534
80003658:	e0 88 00 03 	brls	8000365e <usart_set_async_baudrate+0x32>
8000365c:	da 0a       	popm	pc,r12=1
8000365e:	78 18       	ld.w	r8,r12[0x4]
80003660:	e8 6b 00 00 	mov	r11,524288
80003664:	e4 18 ff f7 	andh	r8,0xfff7
80003668:	e0 18 fe cf 	andl	r8,0xfecf
8000366c:	59 0e       	cp.w	lr,16
8000366e:	f6 0e 17 10 	movne	lr,r11
80003672:	f9 be 00 00 	moveq	lr,0
80003676:	fd e8 10 08 	or	r8,lr,r8
8000367a:	99 18       	st.w	r12[0x4],r8
8000367c:	f5 da c0 03 	bfextu	r10,r10,0x0,0x3
80003680:	f3 ea 11 09 	or	r9,r9,r10<<0x10
80003684:	99 89       	st.w	r12[0x20],r9
80003686:	d8 0a       	popm	pc,r12=0

80003688 <usart_putchar>:
80003688:	e0 68 27 10 	mov	r8,10000
8000368c:	20 18       	sub	r8,1
8000368e:	5b f8       	cp.w	r8,-1
80003690:	c0 21       	brne	80003694 <usart_putchar+0xc>
80003692:	5e f8       	retal	r8
80003694:	78 59       	ld.w	r9,r12[0x14]
80003696:	ed b9 00 01 	bld	r9,0x1
8000369a:	cf 91       	brne	8000368c <usart_putchar+0x4>
8000369c:	f7 db c0 09 	bfextu	r11,r11,0x0,0x9
800036a0:	99 7b       	st.w	r12[0x1c],r11
800036a2:	5e fd       	retal	0

800036a4 <usart_write_line>:
800036a4:	c0 e8       	rjmp	800036c0 <usart_write_line+0x1c>
800036a6:	e0 68 27 10 	mov	r8,10000
800036aa:	20 18       	sub	r8,1
800036ac:	5b f8       	cp.w	r8,-1
800036ae:	c0 80       	breq	800036be <usart_write_line+0x1a>
800036b0:	78 59       	ld.w	r9,r12[0x14]
800036b2:	ed b9 00 01 	bld	r9,0x1
800036b6:	cf a1       	brne	800036aa <usart_write_line+0x6>
800036b8:	f5 da c0 09 	bfextu	r10,r10,0x0,0x9
800036bc:	99 7a       	st.w	r12[0x1c],r10
800036be:	2f fb       	sub	r11,-1
800036c0:	17 8a       	ld.ub	r10,r11[0x0]
800036c2:	58 0a       	cp.w	r10,0
800036c4:	cf 11       	brne	800036a6 <usart_write_line+0x2>
800036c6:	5e fc       	retal	r12

800036c8 <usart_reset>:
800036c8:	e1 b8 00 00 	mfsr	r8,0x0
800036cc:	ee 18 00 01 	eorh	r8,0x1
800036d0:	f1 d8 c2 01 	bfextu	r8,r8,0x10,0x1
800036d4:	c0 20       	breq	800036d8 <usart_reset+0x10>
800036d6:	d3 03       	ssrf	0x10
800036d8:	3f f9       	mov	r9,-1
800036da:	99 39       	st.w	r12[0xc],r9
800036dc:	78 59       	ld.w	r9,r12[0x14]
800036de:	58 08       	cp.w	r8,0
800036e0:	c0 20       	breq	800036e4 <usart_reset+0x1c>
800036e2:	d5 03       	csrf	0x10
800036e4:	30 08       	mov	r8,0
800036e6:	99 18       	st.w	r12[0x4],r8
800036e8:	99 98       	st.w	r12[0x24],r8
800036ea:	99 a8       	st.w	r12[0x28],r8
800036ec:	ea 68 61 0c 	mov	r8,680204
800036f0:	99 08       	st.w	r12[0x0],r8
800036f2:	5e fc       	retal	r12

800036f4 <usart_init_rs232>:
800036f4:	d4 21       	pushm	r4-r7,lr
800036f6:	20 1d       	sub	sp,4
800036f8:	50 0a       	stdsp	sp[0x0],r10
800036fa:	16 96       	mov	r6,r11
800036fc:	18 97       	mov	r7,r12
800036fe:	ce 5f       	rcall	800036c8 <usart_reset>
80003700:	40 0a       	lddsp	r10,sp[0x0]
80003702:	58 06       	cp.w	r6,0
80003704:	c5 40       	breq	800037ac <usart_init_rs232+0xb8>
80003706:	0d c8       	ld.ub	r8,r6[0x4]
80003708:	30 49       	mov	r9,4
8000370a:	f2 08 18 00 	cp.b	r8,r9
8000370e:	e0 88 00 4f 	brls	800037ac <usart_init_rs232+0xb8>
80003712:	30 95       	mov	r5,9
80003714:	ea 08 18 00 	cp.b	r8,r5
80003718:	e0 8b 00 4a 	brhi	800037ac <usart_init_rs232+0xb8>
8000371c:	0d d9       	ld.ub	r9,r6[0x5]
8000371e:	30 78       	mov	r8,7
80003720:	f0 09 18 00 	cp.b	r9,r8
80003724:	e0 8b 00 44 	brhi	800037ac <usart_init_rs232+0xb8>
80003728:	8c 39       	ld.sh	r9,r6[0x6]
8000372a:	e0 68 01 01 	mov	r8,257
8000372e:	f0 09 19 00 	cp.h	r9,r8
80003732:	e0 8b 00 3d 	brhi	800037ac <usart_init_rs232+0xb8>
80003736:	ed 39 00 08 	ld.ub	r9,r6[8]
8000373a:	30 38       	mov	r8,3
8000373c:	f0 09 18 00 	cp.b	r9,r8
80003740:	e0 8b 00 36 	brhi	800037ac <usart_init_rs232+0xb8>
80003744:	6c 0b       	ld.w	r11,r6[0x0]
80003746:	0e 9c       	mov	r12,r7
80003748:	c7 2f       	rcall	8000362c <usart_set_async_baudrate>
8000374a:	58 1c       	cp.w	r12,1
8000374c:	c3 00       	breq	800037ac <usart_init_rs232+0xb8>
8000374e:	0d c8       	ld.ub	r8,r6[0x4]
80003750:	ea 08 18 00 	cp.b	r8,r5
80003754:	c0 41       	brne	8000375c <usart_init_rs232+0x68>
80003756:	6e 18       	ld.w	r8,r7[0x4]
80003758:	b1 b8       	sbr	r8,0x11
8000375a:	c0 58       	rjmp	80003764 <usart_init_rs232+0x70>
8000375c:	20 58       	sub	r8,5
8000375e:	6e 19       	ld.w	r9,r7[0x4]
80003760:	f3 e8 10 68 	or	r8,r9,r8<<0x6
80003764:	8f 18       	st.w	r7[0x4],r8
80003766:	6e 19       	ld.w	r9,r7[0x4]
80003768:	ed 3a 00 08 	ld.ub	r10,r6[8]
8000376c:	0d d8       	ld.ub	r8,r6[0x5]
8000376e:	a9 78       	lsl	r8,0x9
80003770:	f1 ea 10 e8 	or	r8,r8,r10<<0xe
80003774:	12 48       	or	r8,r9
80003776:	8f 18       	st.w	r7[0x4],r8
80003778:	30 29       	mov	r9,2
8000377a:	8c 38       	ld.sh	r8,r6[0x6]
8000377c:	f2 08 19 00 	cp.h	r8,r9
80003780:	e0 88 00 09 	brls	80003792 <usart_init_rs232+0x9e>
80003784:	6e 18       	ld.w	r8,r7[0x4]
80003786:	ad b8       	sbr	r8,0xd
80003788:	8f 18       	st.w	r7[0x4],r8
8000378a:	8c b8       	ld.uh	r8,r6[0x6]
8000378c:	20 28       	sub	r8,2
8000378e:	8f a8       	st.w	r7[0x28],r8
80003790:	c0 68       	rjmp	8000379c <usart_init_rs232+0xa8>
80003792:	6e 19       	ld.w	r9,r7[0x4]
80003794:	5c 78       	castu.h	r8
80003796:	f3 e8 10 c8 	or	r8,r9,r8<<0xc
8000379a:	8f 18       	st.w	r7[0x4],r8
8000379c:	6e 18       	ld.w	r8,r7[0x4]
8000379e:	e0 18 ff f0 	andl	r8,0xfff0
800037a2:	8f 18       	st.w	r7[0x4],r8
800037a4:	30 0c       	mov	r12,0
800037a6:	35 08       	mov	r8,80
800037a8:	8f 08       	st.w	r7[0x0],r8
800037aa:	c0 28       	rjmp	800037ae <usart_init_rs232+0xba>
800037ac:	30 1c       	mov	r12,1
800037ae:	2f fd       	sub	sp,-4
800037b0:	d8 22       	popm	r4-r7,pc
800037b2:	d7 03       	nop

800037b4 <_stext>:
800037b4:	e0 7d 00 00 	mov	sp,65536
800037b8:	fe c0 db b8 	sub	r0,pc,-9288
800037bc:	e3 b0 00 01 	mtsr	0x4,r0
800037c0:	d5 53       	csrf	0x15
800037c2:	30 80       	mov	r0,8
800037c4:	e0 61 00 b8 	mov	r1,184
800037c8:	02 30       	cp.w	r0,r1
800037ca:	c0 72       	brcc	800037d8 <idata_load_loop_end>
800037cc:	fe c2 d5 d4 	sub	r2,pc,-10796

800037d0 <idata_load_loop>:
800037d0:	a5 05       	ld.d	r4,r2++
800037d2:	a1 24       	st.d	r0++,r4
800037d4:	02 30       	cp.w	r0,r1
800037d6:	cf d3       	brcs	800037d0 <idata_load_loop>

800037d8 <idata_load_loop_end>:
800037d8:	e0 60 00 b8 	mov	r0,184
800037dc:	e0 61 0b 58 	mov	r1,2904
800037e0:	02 30       	cp.w	r0,r1
800037e2:	c0 62       	brcc	800037ee <udata_clear_loop_end>
800037e4:	30 02       	mov	r2,0
800037e6:	30 03       	mov	r3,0

800037e8 <udata_clear_loop>:
800037e8:	a1 22       	st.d	r0++,r2
800037ea:	02 30       	cp.w	r0,r1
800037ec:	cf e3       	brcs	800037e8 <udata_clear_loop>

800037ee <udata_clear_loop_end>:
800037ee:	fe cf ef 7e 	sub	pc,pc,-4226
800037f2:	d7 03       	nop

800037f4 <PCA9952_write_reg>:
800037f4:	d4 21       	pushm	r4-r7,lr
800037f6:	20 6d       	sub	sp,24
800037f8:	58 0c       	cp.w	r12,0
800037fa:	c0 31       	brne	80003800 <PCA9952_write_reg+0xc>
800037fc:	36 08       	mov	r8,96
800037fe:	c0 68       	rjmp	8000380a <PCA9952_write_reg+0x16>
80003800:	30 18       	mov	r8,1
80003802:	f0 0c 18 00 	cp.b	r12,r8
80003806:	c0 31       	brne	8000380c <PCA9952_write_reg+0x18>
80003808:	36 18       	mov	r8,97
8000380a:	50 08       	stdsp	sp[0x0],r8
8000380c:	30 08       	mov	r8,0
8000380e:	ba f8       	st.b	sp[0x7],r8
80003810:	fa c8 ff ec 	sub	r8,sp,-20
80003814:	fb 6b 00 14 	st.b	sp[20],r11
80003818:	50 28       	stdsp	sp[0x8],r8
8000381a:	fb 6a 00 15 	st.b	sp[21],r10
8000381e:	30 28       	mov	r8,2
80003820:	1a 97       	mov	r7,sp
80003822:	50 38       	stdsp	sp[0xc],r8
80003824:	1a 9b       	mov	r11,sp
80003826:	fe 7c 38 00 	mov	r12,-51200
8000382a:	fe b0 fd d7 	rcall	800033d8 <twim_write_packet>
8000382e:	cf b1       	brne	80003824 <PCA9952_write_reg+0x30>
80003830:	2f ad       	sub	sp,-24
80003832:	d8 22       	popm	r4-r7,pc

80003834 <PCA9952_read_reg>:
80003834:	d4 21       	pushm	r4-r7,lr
80003836:	20 7d       	sub	sp,28
80003838:	ba 8b       	st.b	sp[0x0],r11
8000383a:	58 0c       	cp.w	r12,0
8000383c:	c0 31       	brne	80003842 <PCA9952_read_reg+0xe>
8000383e:	36 08       	mov	r8,96
80003840:	c0 68       	rjmp	8000384c <PCA9952_read_reg+0x18>
80003842:	30 18       	mov	r8,1
80003844:	f0 0c 18 00 	cp.b	r12,r8
80003848:	c0 31       	brne	8000384e <PCA9952_read_reg+0x1a>
8000384a:	36 18       	mov	r8,97
8000384c:	50 18       	stdsp	sp[0x4],r8
8000384e:	30 08       	mov	r8,0
80003850:	50 3d       	stdsp	sp[0xc],sp
80003852:	fb 68 00 0b 	st.b	sp[11],r8
80003856:	fa c7 ff fc 	sub	r7,sp,-4
8000385a:	30 18       	mov	r8,1
8000385c:	50 48       	stdsp	sp[0x10],r8
8000385e:	0e 9b       	mov	r11,r7
80003860:	fe 7c 38 00 	mov	r12,-51200
80003864:	fe b0 fd ba 	rcall	800033d8 <twim_write_packet>
80003868:	cf b1       	brne	8000385e <PCA9952_read_reg+0x2a>
8000386a:	e1 b8 00 42 	mfsr	r8,0x108
8000386e:	e1 b9 00 42 	mfsr	r9,0x108
80003872:	10 39       	cp.w	r9,r8
80003874:	c0 b1       	brne	8000388a <PCA9952_read_reg+0x56>
80003876:	cf cb       	rjmp	8000386e <PCA9952_read_reg+0x3a>
80003878:	0e 9b       	mov	r11,r7
8000387a:	fe 7c 38 00 	mov	r12,-51200
8000387e:	c1 1e       	rcall	800034a0 <twim_read_packet>
80003880:	cf c1       	brne	80003878 <PCA9952_read_reg+0x44>
80003882:	fb 3c 00 1b 	ld.ub	r12,sp[27]
80003886:	2f 9d       	sub	sp,-28
80003888:	d8 22       	popm	r4-r7,pc
8000388a:	30 08       	mov	r8,0
8000388c:	fb 68 00 0b 	st.b	sp[11],r8
80003890:	fa c8 ff e5 	sub	r8,sp,-27
80003894:	fa c7 ff fc 	sub	r7,sp,-4
80003898:	50 38       	stdsp	sp[0xc],r8
8000389a:	30 18       	mov	r8,1
8000389c:	50 48       	stdsp	sp[0x10],r8
8000389e:	ce db       	rjmp	80003878 <PCA9952_read_reg+0x44>

800038a0 <PCA9952_channel>:
800038a0:	d4 21       	pushm	r4-r7,lr
800038a2:	30 19       	mov	r9,1
800038a4:	16 96       	mov	r6,r11
800038a6:	14 94       	mov	r4,r10
800038a8:	18 97       	mov	r7,r12
800038aa:	eb db c0 48 	bfextu	r5,r11,0x2,0x8
800038ae:	f2 05 18 00 	cp.b	r5,r9
800038b2:	c0 d0       	breq	800038cc <PCA9952_channel+0x2c>
800038b4:	c0 a3       	brcs	800038c8 <PCA9952_channel+0x28>
800038b6:	30 29       	mov	r9,2
800038b8:	f2 05 18 00 	cp.b	r5,r9
800038bc:	c0 a0       	breq	800038d0 <PCA9952_channel+0x30>
800038be:	30 39       	mov	r9,3
800038c0:	f2 05 18 00 	cp.b	r5,r9
800038c4:	c0 b1       	brne	800038da <PCA9952_channel+0x3a>
800038c6:	c0 78       	rjmp	800038d4 <PCA9952_channel+0x34>
800038c8:	30 2b       	mov	r11,2
800038ca:	c0 68       	rjmp	800038d6 <PCA9952_channel+0x36>
800038cc:	30 3b       	mov	r11,3
800038ce:	c0 48       	rjmp	800038d6 <PCA9952_channel+0x36>
800038d0:	30 4b       	mov	r11,4
800038d2:	c0 28       	rjmp	800038d6 <PCA9952_channel+0x36>
800038d4:	30 5b       	mov	r11,5
800038d6:	ca ff       	rcall	80003834 <PCA9952_read_reg>
800038d8:	18 98       	mov	r8,r12
800038da:	ed d6 c0 02 	bfextu	r6,r6,0x0,0x2
800038de:	30 19       	mov	r9,1
800038e0:	a1 76       	lsl	r6,0x1
800038e2:	f2 04 18 00 	cp.b	r4,r9
800038e6:	c0 61       	brne	800038f2 <PCA9952_channel+0x52>
800038e8:	30 19       	mov	r9,1
800038ea:	f2 06 09 49 	lsl	r9,r9,r6
800038ee:	5c 59       	castu.b	r9
800038f0:	c0 28       	rjmp	800038f4 <PCA9952_channel+0x54>
800038f2:	30 09       	mov	r9,0
800038f4:	e0 6a 00 ff 	mov	r10,255
800038f8:	f4 06 09 4a 	lsl	r10,r10,r6
800038fc:	5c 5a       	castu.b	r10
800038fe:	5c da       	com	r10
80003900:	f1 ea 00 0a 	and	r10,r8,r10
80003904:	30 18       	mov	r8,1
80003906:	f3 ea 10 0a 	or	r10,r9,r10
8000390a:	5c 5a       	castu.b	r10
8000390c:	f0 05 18 00 	cp.b	r5,r8
80003910:	c0 e0       	breq	8000392c <PCA9952_channel+0x8c>
80003912:	c0 a3       	brcs	80003926 <PCA9952_channel+0x86>
80003914:	30 28       	mov	r8,2
80003916:	f0 05 18 00 	cp.b	r5,r8
8000391a:	c0 c0       	breq	80003932 <PCA9952_channel+0x92>
8000391c:	30 38       	mov	r8,3
8000391e:	f0 05 18 00 	cp.b	r5,r8
80003922:	c0 f1       	brne	80003940 <PCA9952_channel+0xa0>
80003924:	c0 b8       	rjmp	8000393a <PCA9952_channel+0x9a>
80003926:	0e 9c       	mov	r12,r7
80003928:	30 2b       	mov	r11,2
8000392a:	c0 68       	rjmp	80003936 <PCA9952_channel+0x96>
8000392c:	0e 9c       	mov	r12,r7
8000392e:	30 3b       	mov	r11,3
80003930:	c0 38       	rjmp	80003936 <PCA9952_channel+0x96>
80003932:	0e 9c       	mov	r12,r7
80003934:	30 4b       	mov	r11,4
80003936:	c5 ff       	rcall	800037f4 <PCA9952_write_reg>
80003938:	d8 22       	popm	r4-r7,pc
8000393a:	0e 9c       	mov	r12,r7
8000393c:	30 5b       	mov	r11,5
8000393e:	c5 bf       	rcall	800037f4 <PCA9952_write_reg>
80003940:	d8 22       	popm	r4-r7,pc
80003942:	d7 03       	nop

80003944 <led_shelf>:
80003944:	d4 21       	pushm	r4-r7,lr
80003946:	30 18       	mov	r8,1
80003948:	16 97       	mov	r7,r11
8000394a:	f0 0c 18 00 	cp.b	r12,r8
8000394e:	c1 e0       	breq	8000398a <led_shelf+0x46>
80003950:	c0 a3       	brcs	80003964 <led_shelf+0x20>
80003952:	30 28       	mov	r8,2
80003954:	f0 0c 18 00 	cp.b	r12,r8
80003958:	c2 c0       	breq	800039b0 <led_shelf+0x6c>
8000395a:	30 38       	mov	r8,3
8000395c:	f0 0c 18 00 	cp.b	r12,r8
80003960:	c5 11       	brne	80003a02 <led_shelf+0xbe>
80003962:	c3 c8       	rjmp	800039da <led_shelf+0x96>
80003964:	16 9a       	mov	r10,r11
80003966:	30 1c       	mov	r12,1
80003968:	30 0b       	mov	r11,0
8000396a:	c9 bf       	rcall	800038a0 <PCA9952_channel>
8000396c:	30 1b       	mov	r11,1
8000396e:	0e 9a       	mov	r10,r7
80003970:	16 9c       	mov	r12,r11
80003972:	c9 7f       	rcall	800038a0 <PCA9952_channel>
80003974:	0e 9a       	mov	r10,r7
80003976:	30 2b       	mov	r11,2
80003978:	30 1c       	mov	r12,1
8000397a:	c9 3f       	rcall	800038a0 <PCA9952_channel>
8000397c:	30 0b       	mov	r11,0
8000397e:	0e 9a       	mov	r10,r7
80003980:	16 9c       	mov	r12,r11
80003982:	c8 ff       	rcall	800038a0 <PCA9952_channel>
80003984:	0e 9a       	mov	r10,r7
80003986:	30 1b       	mov	r11,1
80003988:	c2 68       	rjmp	800039d4 <led_shelf+0x90>
8000398a:	16 9a       	mov	r10,r11
8000398c:	30 1c       	mov	r12,1
8000398e:	30 3b       	mov	r11,3
80003990:	c8 8f       	rcall	800038a0 <PCA9952_channel>
80003992:	0e 9a       	mov	r10,r7
80003994:	30 4b       	mov	r11,4
80003996:	30 1c       	mov	r12,1
80003998:	c8 4f       	rcall	800038a0 <PCA9952_channel>
8000399a:	0e 9a       	mov	r10,r7
8000399c:	30 5b       	mov	r11,5
8000399e:	30 1c       	mov	r12,1
800039a0:	c8 0f       	rcall	800038a0 <PCA9952_channel>
800039a2:	0e 9a       	mov	r10,r7
800039a4:	30 2b       	mov	r11,2
800039a6:	30 0c       	mov	r12,0
800039a8:	c7 cf       	rcall	800038a0 <PCA9952_channel>
800039aa:	0e 9a       	mov	r10,r7
800039ac:	30 3b       	mov	r11,3
800039ae:	c1 38       	rjmp	800039d4 <led_shelf+0x90>
800039b0:	16 9a       	mov	r10,r11
800039b2:	30 1c       	mov	r12,1
800039b4:	30 6b       	mov	r11,6
800039b6:	c7 5f       	rcall	800038a0 <PCA9952_channel>
800039b8:	0e 9a       	mov	r10,r7
800039ba:	30 7b       	mov	r11,7
800039bc:	30 1c       	mov	r12,1
800039be:	c7 1f       	rcall	800038a0 <PCA9952_channel>
800039c0:	0e 9a       	mov	r10,r7
800039c2:	30 8b       	mov	r11,8
800039c4:	30 1c       	mov	r12,1
800039c6:	c6 df       	rcall	800038a0 <PCA9952_channel>
800039c8:	0e 9a       	mov	r10,r7
800039ca:	30 4b       	mov	r11,4
800039cc:	30 0c       	mov	r12,0
800039ce:	c6 9f       	rcall	800038a0 <PCA9952_channel>
800039d0:	0e 9a       	mov	r10,r7
800039d2:	30 5b       	mov	r11,5
800039d4:	30 0c       	mov	r12,0
800039d6:	c6 5f       	rcall	800038a0 <PCA9952_channel>
800039d8:	d8 22       	popm	r4-r7,pc
800039da:	30 9b       	mov	r11,9
800039dc:	30 1c       	mov	r12,1
800039de:	0e 9a       	mov	r10,r7
800039e0:	c6 0f       	rcall	800038a0 <PCA9952_channel>
800039e2:	0e 9a       	mov	r10,r7
800039e4:	30 ab       	mov	r11,10
800039e6:	30 1c       	mov	r12,1
800039e8:	c5 cf       	rcall	800038a0 <PCA9952_channel>
800039ea:	0e 9a       	mov	r10,r7
800039ec:	30 bb       	mov	r11,11
800039ee:	30 1c       	mov	r12,1
800039f0:	c5 8f       	rcall	800038a0 <PCA9952_channel>
800039f2:	0e 9a       	mov	r10,r7
800039f4:	30 6b       	mov	r11,6
800039f6:	30 0c       	mov	r12,0
800039f8:	c5 4f       	rcall	800038a0 <PCA9952_channel>
800039fa:	0e 9a       	mov	r10,r7
800039fc:	30 7b       	mov	r11,7
800039fe:	30 0c       	mov	r12,0
80003a00:	c5 0f       	rcall	800038a0 <PCA9952_channel>
80003a02:	d8 22       	popm	r4-r7,pc

80003a04 <PCA9952_init>:
80003a04:	d4 01       	pushm	lr
80003a06:	20 1d       	sub	sp,4
80003a08:	30 0a       	mov	r10,0
80003a0a:	14 9b       	mov	r11,r10
80003a0c:	14 9c       	mov	r12,r10
80003a0e:	cf 3e       	rcall	800037f4 <PCA9952_write_reg>
80003a10:	30 0a       	mov	r10,0
80003a12:	30 1b       	mov	r11,1
80003a14:	14 9c       	mov	r12,r10
80003a16:	ce fe       	rcall	800037f4 <PCA9952_write_reg>
80003a18:	36 4a       	mov	r10,100
80003a1a:	34 3b       	mov	r11,67
80003a1c:	30 0c       	mov	r12,0
80003a1e:	ce be       	rcall	800037f4 <PCA9952_write_reg>
80003a20:	30 0a       	mov	r10,0
80003a22:	30 2b       	mov	r11,2
80003a24:	14 9c       	mov	r12,r10
80003a26:	ce 7e       	rcall	800037f4 <PCA9952_write_reg>
80003a28:	30 0a       	mov	r10,0
80003a2a:	30 3b       	mov	r11,3
80003a2c:	14 9c       	mov	r12,r10
80003a2e:	ce 3e       	rcall	800037f4 <PCA9952_write_reg>
80003a30:	30 0a       	mov	r10,0
80003a32:	30 4b       	mov	r11,4
80003a34:	14 9c       	mov	r12,r10
80003a36:	cd fe       	rcall	800037f4 <PCA9952_write_reg>
80003a38:	30 0a       	mov	r10,0
80003a3a:	30 5b       	mov	r11,5
80003a3c:	14 9c       	mov	r12,r10
80003a3e:	cd be       	rcall	800037f4 <PCA9952_write_reg>
80003a40:	34 4b       	mov	r11,68
80003a42:	30 0c       	mov	r12,0
80003a44:	cf 8e       	rcall	80003834 <PCA9952_read_reg>
80003a46:	34 5b       	mov	r11,69
80003a48:	ba bc       	st.b	sp[0x3],r12
80003a4a:	30 0c       	mov	r12,0
80003a4c:	cf 4e       	rcall	80003834 <PCA9952_read_reg>
80003a4e:	30 0a       	mov	r10,0
80003a50:	ba ac       	st.b	sp[0x2],r12
80003a52:	14 9b       	mov	r11,r10
80003a54:	30 1c       	mov	r12,1
80003a56:	cc fe       	rcall	800037f4 <PCA9952_write_reg>
80003a58:	30 1b       	mov	r11,1
80003a5a:	30 0a       	mov	r10,0
80003a5c:	16 9c       	mov	r12,r11
80003a5e:	cc be       	rcall	800037f4 <PCA9952_write_reg>
80003a60:	36 4a       	mov	r10,100
80003a62:	34 3b       	mov	r11,67
80003a64:	30 1c       	mov	r12,1
80003a66:	cc 7e       	rcall	800037f4 <PCA9952_write_reg>
80003a68:	30 0a       	mov	r10,0
80003a6a:	30 2b       	mov	r11,2
80003a6c:	30 1c       	mov	r12,1
80003a6e:	cc 3e       	rcall	800037f4 <PCA9952_write_reg>
80003a70:	30 0a       	mov	r10,0
80003a72:	30 3b       	mov	r11,3
80003a74:	30 1c       	mov	r12,1
80003a76:	cb fe       	rcall	800037f4 <PCA9952_write_reg>
80003a78:	30 0a       	mov	r10,0
80003a7a:	30 4b       	mov	r11,4
80003a7c:	30 1c       	mov	r12,1
80003a7e:	cb be       	rcall	800037f4 <PCA9952_write_reg>
80003a80:	30 0a       	mov	r10,0
80003a82:	30 5b       	mov	r11,5
80003a84:	30 1c       	mov	r12,1
80003a86:	cb 7e       	rcall	800037f4 <PCA9952_write_reg>
80003a88:	34 4b       	mov	r11,68
80003a8a:	30 1c       	mov	r12,1
80003a8c:	cd 4e       	rcall	80003834 <PCA9952_read_reg>
80003a8e:	34 5b       	mov	r11,69
80003a90:	ba 9c       	st.b	sp[0x1],r12
80003a92:	30 1c       	mov	r12,1
80003a94:	cd 0e       	rcall	80003834 <PCA9952_read_reg>
80003a96:	ba 8c       	st.b	sp[0x0],r12
80003a98:	2f fd       	sub	sp,-4
80003a9a:	d8 02       	popm	pc

80003a9c <check_led_brd_side_lifetime>:
80003a9c:	d4 31       	pushm	r0-r7,lr
80003a9e:	e0 68 03 80 	mov	r8,896
80003aa2:	f8 0c 00 2c 	add	r12,r12,r12<<0x2
80003aa6:	e0 6b 03 e8 	mov	r11,1000
80003aaa:	e0 67 0b 1c 	mov	r7,2844
80003aae:	18 07       	add	r7,r12
80003ab0:	0f 99       	ld.ub	r9,r7[0x1]
80003ab2:	f2 09 00 29 	add	r9,r9,r9<<0x2
80003ab6:	f0 09 00 19 	add	r9,r8,r9<<0x1
80003aba:	f3 38 00 08 	ld.ub	r8,r9[8]
80003abe:	13 f9       	ld.ub	r9,r9[0x7]
80003ac0:	f0 06 16 04 	lsr	r6,r8,0x4
80003ac4:	f5 d9 c0 04 	bfextu	r10,r9,0x0,0x4
80003ac8:	f1 d8 c0 04 	bfextu	r8,r8,0x0,0x4
80003acc:	f4 0a 10 64 	mul	r10,r10,100
80003ad0:	a5 89       	lsr	r9,0x4
80003ad2:	b7 39       	mul	r9,r11
80003ad4:	14 09       	add	r9,r10
80003ad6:	f2 08 00 08 	add	r8,r9,r8
80003ada:	ec 06 00 26 	add	r6,r6,r6<<0x2
80003ade:	f0 06 00 16 	add	r6,r8,r6<<0x1
80003ae2:	0c 9c       	mov	r12,r6
80003ae4:	e0 a0 0c 2c 	rcall	8000533c <__avr32_u32_to_f64>
80003ae8:	e0 68 68 f1 	mov	r8,26865
80003aec:	ea 18 88 e3 	orh	r8,0x88e3
80003af0:	14 94       	mov	r4,r10
80003af2:	16 95       	mov	r5,r11
80003af4:	e0 69 f8 b5 	mov	r9,63669
80003af8:	ea 19 3e f4 	orh	r9,0x3ef4
80003afc:	e0 a0 09 de 	rcall	80004eb8 <__avr32_f64_mul>
80003b00:	08 98       	mov	r8,r4
80003b02:	0a 99       	mov	r9,r5
80003b04:	e0 a0 09 da 	rcall	80004eb8 <__avr32_f64_mul>
80003b08:	e0 68 8a db 	mov	r8,35547
80003b0c:	ea 18 65 fd 	orh	r8,0x65fd
80003b10:	14 92       	mov	r2,r10
80003b12:	16 93       	mov	r3,r11
80003b14:	08 9a       	mov	r10,r4
80003b16:	0a 9b       	mov	r11,r5
80003b18:	e0 69 e4 f7 	mov	r9,58615
80003b1c:	ea 19 bf b1 	orh	r9,0xbfb1
80003b20:	e0 a0 09 cc 	rcall	80004eb8 <__avr32_f64_mul>
80003b24:	14 98       	mov	r8,r10
80003b26:	16 99       	mov	r9,r11
80003b28:	04 9a       	mov	r10,r2
80003b2a:	06 9b       	mov	r11,r3
80003b2c:	e0 a0 0b 80 	rcall	8000522c <__avr32_f64_add>
80003b30:	e0 68 4b c7 	mov	r8,19399
80003b34:	ea 18 89 37 	orh	r8,0x8937
80003b38:	e0 69 38 41 	mov	r9,14401
80003b3c:	ea 19 40 57 	orh	r9,0x4057
80003b40:	e0 a0 0b 76 	rcall	8000522c <__avr32_f64_add>
80003b44:	e0 a0 0d 20 	rcall	80005584 <__avr32_f64_to_f32>
80003b48:	18 9b       	mov	r11,r12
80003b4a:	fc 1c 44 fa 	movh	r12,0x44fa
80003b4e:	e0 a0 0c 6b 	rcall	80005424 <__avr32_f32_div>
80003b52:	e5 a9 0c 0c 	cop	cp0,cr12,cr0,cr12,0x52
80003b56:	e0 46 07 cf 	cp.w	r6,1999
80003b5a:	f9 b6 03 01 	movlo	r6,1
80003b5e:	f9 b6 02 00 	movhs	r6,0
80003b62:	ae 8c       	st.b	r7[0x0],r12
80003b64:	f9 d6 c0 01 	bfextu	r12,r6,0x0,0x1
80003b68:	d8 32       	popm	r0-r7,pc
80003b6a:	d7 03       	nop

80003b6c <check_led_brd_side_lifetimes>:
80003b6c:	d4 21       	pushm	r4-r7,lr
80003b6e:	e0 66 0b 1c 	mov	r6,2844
80003b72:	30 07       	mov	r7,0
80003b74:	2f c6       	sub	r6,-4
80003b76:	e0 64 02 f0 	mov	r4,752
80003b7a:	0e 95       	mov	r5,r7
80003b7c:	0d 88       	ld.ub	r8,r6[0x0]
80003b7e:	f0 09 15 03 	lsl	r9,r8,0x3
80003b82:	f2 08 01 08 	sub	r8,r9,r8
80003b86:	e8 08 00 18 	add	r8,r4,r8<<0x1
80003b8a:	f1 38 00 08 	ld.ub	r8,r8[8]
80003b8e:	ea 08 18 00 	cp.b	r8,r5
80003b92:	c0 80       	breq	80003ba2 <check_led_brd_side_lifetimes+0x36>
80003b94:	0e 9c       	mov	r12,r7
80003b96:	c8 3f       	rcall	80003a9c <check_led_brd_side_lifetime>
80003b98:	ea 0c 18 00 	cp.b	r12,r5
80003b9c:	5f 08       	sreq	r8
80003b9e:	ed 68 ff fe 	st.b	r6[-2],r8
80003ba2:	2f f7       	sub	r7,-1
80003ba4:	2f b6       	sub	r6,-5
80003ba6:	58 87       	cp.w	r7,8
80003ba8:	ce a1       	brne	80003b7c <check_led_brd_side_lifetimes+0x10>
80003baa:	d8 22       	popm	r4-r7,pc

80003bac <calc_usage_csum>:
80003bac:	d4 31       	pushm	r0-r7,lr
80003bae:	f8 09 15 05 	lsl	r9,r12,0x5
80003bb2:	18 19       	sub	r9,r12
80003bb4:	f2 0c 15 05 	lsl	r12,r9,0x5
80003bb8:	e0 68 03 80 	mov	r8,896
80003bbc:	f8 09 01 09 	sub	r9,r12,r9
80003bc0:	10 9a       	mov	r10,r8
80003bc2:	30 0b       	mov	r11,0
80003bc4:	12 94       	mov	r4,r9
80003bc6:	f2 08 00 08 	add	r8,r9,r8
80003bca:	16 9c       	mov	r12,r11
80003bcc:	11 89       	ld.ub	r9,r8[0x0]
80003bce:	11 92       	ld.ub	r2,r8[0x1]
80003bd0:	12 02       	add	r2,r9
80003bd2:	11 a9       	ld.ub	r9,r8[0x2]
80003bd4:	12 02       	add	r2,r9
80003bd6:	11 b9       	ld.ub	r9,r8[0x3]
80003bd8:	12 02       	add	r2,r9
80003bda:	11 c9       	ld.ub	r9,r8[0x4]
80003bdc:	f6 0b 00 25 	add	r5,r11,r11<<0x2
80003be0:	12 02       	add	r2,r9
80003be2:	e8 05 00 15 	add	r5,r4,r5<<0x1
80003be6:	11 d9       	ld.ub	r9,r8[0x5]
80003be8:	f4 05 00 05 	add	r5,r10,r5
80003bec:	ea c7 ff f8 	sub	r7,r5,-8
80003bf0:	2f c5       	sub	r5,-4
80003bf2:	0f 9e       	ld.ub	lr,r7[0x1]
80003bf4:	12 02       	add	r2,r9
80003bf6:	0f 87       	ld.ub	r7,r7[0x0]
80003bf8:	0b a9       	ld.ub	r9,r5[0x2]
80003bfa:	0b b6       	ld.ub	r6,r5[0x3]
80003bfc:	eb d6 c0 04 	bfextu	r5,r6,0x0,0x4
80003c00:	ed d6 c0 84 	bfextu	r6,r6,0x4,0x4
80003c04:	e7 de c0 04 	bfextu	r3,lr,0x0,0x4
80003c08:	e1 d7 c0 04 	bfextu	r0,r7,0x0,0x4
80003c0c:	0c 02       	add	r2,r6
80003c0e:	fd de c0 84 	bfextu	lr,lr,0x4,0x4
80003c12:	e4 05 00 05 	add	r5,r2,r5
80003c16:	ed d7 c0 84 	bfextu	r6,r7,0x4,0x4
80003c1a:	ea 06 00 07 	add	r7,r5,r6
80003c1e:	00 07       	add	r7,r0
80003c20:	ee 0e 00 0e 	add	lr,r7,lr
80003c24:	e3 d9 c0 a1 	bfextu	r1,r9,0x5,0x1
80003c28:	fc 03 00 03 	add	r3,lr,r3
80003c2c:	2f 68       	sub	r8,-10
80003c2e:	fd d9 c0 e1 	bfextu	lr,r9,0x7,0x1
80003c32:	2f fb       	sub	r11,-1
80003c34:	1c 03       	add	r3,lr
80003c36:	f3 d9 c0 c1 	bfextu	r9,r9,0x6,0x1
80003c3a:	1c 97       	mov	r7,lr
80003c3c:	e6 09 00 09 	add	r9,r3,r9
80003c40:	02 09       	add	r9,r1
80003c42:	f2 0c 00 0c 	add	r12,r9,r12
80003c46:	5c 5c       	castu.b	r12
80003c48:	e0 4b 00 60 	cp.w	r11,96
80003c4c:	cc 01       	brne	80003bcc <calc_usage_csum+0x20>
80003c4e:	d8 32       	popm	r0-r7,pc

80003c50 <read_usage_struct>:
80003c50:	d4 21       	pushm	r4-r7,lr
80003c52:	18 97       	mov	r7,r12
80003c54:	e0 6c 03 80 	mov	r12,896
80003c58:	58 07       	cp.w	r7,0
80003c5a:	c0 51       	brne	80003c64 <read_usage_struct+0x14>
80003c5c:	e0 6a 03 c1 	mov	r10,961
80003c60:	48 fb       	lddpc	r11,80003c9c <read_usage_struct+0x4c>
80003c62:	c0 68       	rjmp	80003c6e <read_usage_struct+0x1e>
80003c64:	f8 cc fc 3f 	sub	r12,r12,-961
80003c68:	e0 6a 03 c1 	mov	r10,961
80003c6c:	48 db       	lddpc	r11,80003ca0 <read_usage_struct+0x50>
80003c6e:	e0 a0 0e 02 	rcall	80005872 <memcpy>
80003c72:	0e 9c       	mov	r12,r7
80003c74:	c9 cf       	rcall	80003bac <calc_usage_csum>
80003c76:	ee 08 15 05 	lsl	r8,r7,0x5
80003c7a:	f0 07 01 07 	sub	r7,r8,r7
80003c7e:	ee 08 15 05 	lsl	r8,r7,0x5
80003c82:	f0 07 01 07 	sub	r7,r8,r7
80003c86:	e0 68 03 80 	mov	r8,896
80003c8a:	f0 07 00 07 	add	r7,r8,r7
80003c8e:	ef 38 03 c0 	ld.ub	r8,r7[960]
80003c92:	f8 08 18 00 	cp.b	r8,r12
80003c96:	5f 0c       	sreq	r12
80003c98:	d8 22       	popm	r4-r7,pc
80003c9a:	d7 03       	nop
80003c9c:	80 07       	ld.sh	r7,r0[0x0]
80003c9e:	f0 00       	*unknown*
80003ca0:	80 07       	ld.sh	r7,r0[0x0]
80003ca2:	f8 00       	*unknown*

80003ca4 <calc_usage_current_led_boards>:
80003ca4:	d4 31       	pushm	r0-r7,lr
80003ca6:	e0 69 03 61 	mov	r9,865
80003caa:	f8 0b 15 03 	lsl	r11,r12,0x3
80003cae:	f2 c1 ff f8 	sub	r1,r9,-8
80003cb2:	f8 0a 15 05 	lsl	r10,r12,0x5
80003cb6:	f6 01 00 01 	add	r1,r11,r1
80003cba:	f4 0c 01 0c 	sub	r12,r10,r12
80003cbe:	12 0b       	add	r11,r9
80003cc0:	f8 09 15 05 	lsl	r9,r12,0x5
80003cc4:	30 08       	mov	r8,0
80003cc6:	f2 0c 01 0c 	sub	r12,r9,r12
80003cca:	10 9e       	mov	lr,r8
80003ccc:	10 99       	mov	r9,r8
80003cce:	10 9a       	mov	r10,r8
80003cd0:	10 96       	mov	r6,r8
80003cd2:	10 97       	mov	r7,r8
80003cd4:	3f f2       	mov	r2,-1
80003cd6:	17 85       	ld.ub	r5,r11[0x0]
80003cd8:	e4 05 18 00 	cp.b	r5,r2
80003cdc:	c1 d0       	breq	80003d16 <calc_usage_current_led_boards+0x72>
80003cde:	e0 64 03 80 	mov	r4,896
80003ce2:	ea 05 00 25 	add	r5,r5,r5<<0x2
80003ce6:	f8 05 00 15 	add	r5,r12,r5<<0x1
80003cea:	e8 05 00 05 	add	r5,r4,r5
80003cee:	ea c0 ff f8 	sub	r0,r5,-8
80003cf2:	01 94       	ld.ub	r4,r0[0x1]
80003cf4:	e7 d4 c0 04 	bfextu	r3,r4,0x0,0x4
80003cf8:	06 08       	add	r8,r3
80003cfa:	0b f3       	ld.ub	r3,r5[0x7]
80003cfc:	eb d3 c0 04 	bfextu	r5,r3,0x0,0x4
80003d00:	a5 84       	lsr	r4,0x4
80003d02:	0a 06       	add	r6,r5
80003d04:	a5 83       	lsr	r3,0x4
80003d06:	01 85       	ld.ub	r5,r0[0x0]
80003d08:	06 07       	add	r7,r3
80003d0a:	e1 d5 c0 04 	bfextu	r0,r5,0x0,0x4
80003d0e:	08 09       	add	r9,r4
80003d10:	a5 85       	lsr	r5,0x4
80003d12:	00 0e       	add	lr,r0
80003d14:	0a 0a       	add	r10,r5
80003d16:	2f fb       	sub	r11,-1
80003d18:	02 3b       	cp.w	r11,r1
80003d1a:	cd e1       	brne	80003cd6 <calc_usage_current_led_boards+0x32>
80003d1c:	f2 09 00 29 	add	r9,r9,r9<<0x2
80003d20:	ec 06 10 64 	mul	r6,r6,100
80003d24:	f0 09 00 18 	add	r8,r8,r9<<0x1
80003d28:	e0 69 03 e8 	mov	r9,1000
80003d2c:	b3 37       	mul	r7,r9
80003d2e:	0c 07       	add	r7,r6
80003d30:	ee 0e 00 0e 	add	lr,r7,lr
80003d34:	f4 0a 00 2a 	add	r10,r10,r10<<0x2
80003d38:	fc 0a 00 1a 	add	r10,lr,r10<<0x1
80003d3c:	f4 0e 15 04 	lsl	lr,r10,0x4
80003d40:	fc 0a 01 0a 	sub	r10,lr,r10
80003d44:	f0 0a 00 2c 	add	r12,r8,r10<<0x2
80003d48:	d8 32       	popm	r0-r7,pc
80003d4a:	d7 03       	nop

80003d4c <init_shelf_n_ledBrd_structs>:
80003d4c:	d4 21       	pushm	r4-r7,lr
80003d4e:	e0 68 02 f0 	mov	r8,752
80003d52:	30 09       	mov	r9,0
80003d54:	f1 69 00 08 	st.b	r8[8],r9
80003d58:	f1 69 00 16 	st.b	r8[22],r9
80003d5c:	f1 69 00 24 	st.b	r8[36],r9
80003d60:	f1 69 00 32 	st.b	r8[50],r9
80003d64:	f1 69 00 40 	st.b	r8[64],r9
80003d68:	f1 69 00 0b 	st.b	r8[11],r9
80003d6c:	f1 69 00 1a 	st.b	r8[26],r9
80003d70:	e0 6a 03 36 	mov	r10,822
80003d74:	30 17       	mov	r7,1
80003d76:	b4 89       	st.b	r10[0x0],r9
80003d78:	b4 b9       	st.b	r10[0x3],r9
80003d7a:	b4 c9       	st.b	r10[0x4],r9
80003d7c:	b4 f9       	st.b	r10[0x7],r9
80003d7e:	f5 69 00 08 	st.b	r10[8],r9
80003d82:	f5 69 00 0b 	st.b	r10[11],r9
80003d86:	f5 69 00 0c 	st.b	r10[12],r9
80003d8a:	f5 69 00 0f 	st.b	r10[15],r9
80003d8e:	b4 99       	st.b	r10[0x1],r9
80003d90:	b4 a7       	st.b	r10[0x2],r7
80003d92:	b4 d7       	st.b	r10[0x5],r7
80003d94:	f1 67 00 18 	st.b	r8[24],r7
80003d98:	30 2e       	mov	lr,2
80003d9a:	b4 ee       	st.b	r10[0x6],lr
80003d9c:	f5 6e 00 09 	st.b	r10[9],lr
80003da0:	f1 6e 00 19 	st.b	r8[25],lr
80003da4:	30 3c       	mov	r12,3
80003da6:	f5 6c 00 0a 	st.b	r10[10],r12
80003daa:	f5 6c 00 0d 	st.b	r10[13],r12
80003dae:	3f fb       	mov	r11,-1
80003db0:	f1 6c 00 26 	st.b	r8[38],r12
80003db4:	f1 6b 00 0a 	st.b	r8[10],r11
80003db8:	f1 6b 00 43 	st.b	r8[67],r11
80003dbc:	f1 6b 00 0c 	st.b	r8[12],r11
80003dc0:	30 46       	mov	r6,4
80003dc2:	f5 66 00 0e 	st.b	r10[14],r6
80003dc6:	30 5a       	mov	r10,5
80003dc8:	f1 6a 00 34 	st.b	r8[52],r10
80003dcc:	30 6a       	mov	r10,6
80003dce:	f1 66 00 27 	st.b	r8[39],r6
80003dd2:	f1 6a 00 35 	st.b	r8[53],r10
80003dd6:	30 7a       	mov	r10,7
80003dd8:	f1 6a 00 42 	st.b	r8[66],r10
80003ddc:	f1 67 00 28 	st.b	r8[40],r7
80003de0:	f1 67 00 1b 	st.b	r8[27],r7
80003de4:	f1 6e 00 29 	st.b	r8[41],lr
80003de8:	f1 6c 00 37 	st.b	r8[55],r12
80003dec:	f1 6b 00 45 	st.b	r8[69],r11
80003df0:	f1 6e 00 36 	st.b	r8[54],lr
80003df4:	f1 6c 00 44 	st.b	r8[68],r12
80003df8:	f1 69 00 0d 	st.b	r8[13],r9
80003dfc:	e0 68 0b 1c 	mov	r8,2844
80003e00:	f0 ca ff d6 	sub	r10,r8,-42
80003e04:	2f e8       	sub	r8,-2
80003e06:	b0 89       	st.b	r8[0x0],r9
80003e08:	f1 69 ff fe 	st.b	r8[-2],r9
80003e0c:	f1 6b ff ff 	st.b	r8[-1],r11
80003e10:	2f b8       	sub	r8,-5
80003e12:	14 38       	cp.w	r8,r10
80003e14:	cf 91       	brne	80003e06 <init_shelf_n_ledBrd_structs+0xba>
80003e16:	e0 68 0b 1c 	mov	r8,2844
80003e1a:	f1 69 00 08 	st.b	r8[8],r9
80003e1e:	b0 c9       	st.b	r8[0x4],r9
80003e20:	b0 b9       	st.b	r8[0x3],r9
80003e22:	30 19       	mov	r9,1
80003e24:	f1 69 00 12 	st.b	r8[18],r9
80003e28:	f1 69 00 09 	st.b	r8[9],r9
80003e2c:	f1 69 00 0e 	st.b	r8[14],r9
80003e30:	f1 69 00 0d 	st.b	r8[13],r9
80003e34:	30 29       	mov	r9,2
80003e36:	f1 69 00 1c 	st.b	r8[28],r9
80003e3a:	f1 69 00 13 	st.b	r8[19],r9
80003e3e:	f1 69 00 18 	st.b	r8[24],r9
80003e42:	f1 69 00 17 	st.b	r8[23],r9
80003e46:	30 39       	mov	r9,3
80003e48:	e0 6c 03 61 	mov	r12,865
80003e4c:	f1 69 00 26 	st.b	r8[38],r9
80003e50:	f1 69 00 1d 	st.b	r8[29],r9
80003e54:	f1 69 00 22 	st.b	r8[34],r9
80003e58:	f1 69 00 21 	st.b	r8[33],r9
80003e5c:	30 49       	mov	r9,4
80003e5e:	f1 69 00 27 	st.b	r8[39],r9
80003e62:	30 08       	mov	r8,0
80003e64:	c0 88       	rjmp	80003e74 <init_shelf_n_ledBrd_structs+0x128>
80003e66:	14 cb       	st.b	r10++,r11
80003e68:	2f f9       	sub	r9,-1
80003e6a:	58 89       	cp.w	r9,8
80003e6c:	cf d1       	brne	80003e66 <init_shelf_n_ledBrd_structs+0x11a>
80003e6e:	2f f8       	sub	r8,-1
80003e70:	58 28       	cp.w	r8,2
80003e72:	c0 50       	breq	80003e7c <init_shelf_n_ledBrd_structs+0x130>
80003e74:	f8 08 00 3a 	add	r10,r12,r8<<0x3
80003e78:	30 09       	mov	r9,0
80003e7a:	cf 6b       	rjmp	80003e66 <init_shelf_n_ledBrd_structs+0x11a>
80003e7c:	d8 22       	popm	r4-r7,pc
80003e7e:	d7 03       	nop

80003e80 <set_shelves_active_inactive>:
80003e80:	d4 01       	pushm	lr
80003e82:	e0 68 03 36 	mov	r8,822
80003e86:	30 19       	mov	r9,1
80003e88:	b0 89       	st.b	r8[0x0],r9
80003e8a:	b0 c9       	st.b	r8[0x4],r9
80003e8c:	f1 69 00 08 	st.b	r8[8],r9
80003e90:	f1 69 00 0c 	st.b	r8[12],r9
80003e94:	e0 6b 0b 46 	mov	r11,2886
80003e98:	30 0a       	mov	r10,0
80003e9a:	b6 8a       	st.b	r11[0x0],r10
80003e9c:	e0 6c 02 f0 	mov	r12,752
80003ea0:	f9 3e 00 08 	ld.ub	lr,r12[8]
80003ea4:	f4 0e 18 00 	cp.b	lr,r10
80003ea8:	c1 b0       	breq	80003ede <set_shelves_active_inactive+0x5e>
80003eaa:	f9 3c 00 16 	ld.ub	r12,r12[22]
80003eae:	f4 0c 18 00 	cp.b	r12,r10
80003eb2:	c1 60       	breq	80003ede <set_shelves_active_inactive+0x5e>
80003eb4:	11 bc       	ld.ub	r12,r8[0x3]
80003eb6:	f4 0c 18 00 	cp.b	r12,r10
80003eba:	c1 20       	breq	80003ede <set_shelves_active_inactive+0x5e>
80003ebc:	e0 6e 0b 1c 	mov	lr,2844
80003ec0:	1d ac       	ld.ub	r12,lr[0x2]
80003ec2:	f4 0c 18 00 	cp.b	r12,r10
80003ec6:	c0 c1       	brne	80003ede <set_shelves_active_inactive+0x5e>
80003ec8:	1d fa       	ld.ub	r10,lr[0x7]
80003eca:	14 9e       	mov	lr,r10
80003ecc:	f8 0a 18 00 	cp.b	r10,r12
80003ed0:	c0 71       	brne	80003ede <set_shelves_active_inactive+0x5e>
80003ed2:	b0 8a       	st.b	r8[0x0],r10
80003ed4:	b6 89       	st.b	r11[0x0],r9
80003ed6:	fe cc de 82 	sub	r12,pc,-8574
80003eda:	fe b0 f3 01 	rcall	800024dc <print_ecdbg>
80003ede:	e0 69 02 f0 	mov	r9,752
80003ee2:	30 08       	mov	r8,0
80003ee4:	f3 3a 00 16 	ld.ub	r10,r9[22]
80003ee8:	f0 0a 18 00 	cp.b	r10,r8
80003eec:	c2 20       	breq	80003f30 <set_shelves_active_inactive+0xb0>
80003eee:	f3 39 00 24 	ld.ub	r9,r9[36]
80003ef2:	f0 09 18 00 	cp.b	r9,r8
80003ef6:	c1 d0       	breq	80003f30 <set_shelves_active_inactive+0xb0>
80003ef8:	e0 69 03 36 	mov	r9,822
80003efc:	13 fa       	ld.ub	r10,r9[0x7]
80003efe:	f0 0a 18 00 	cp.b	r10,r8
80003f02:	c1 70       	breq	80003f30 <set_shelves_active_inactive+0xb0>
80003f04:	e0 6b 0b 1c 	mov	r11,2844
80003f08:	f7 3a 00 0c 	ld.ub	r10,r11[12]
80003f0c:	f0 0a 18 00 	cp.b	r10,r8
80003f10:	c1 01       	brne	80003f30 <set_shelves_active_inactive+0xb0>
80003f12:	f7 38 00 11 	ld.ub	r8,r11[17]
80003f16:	f4 08 18 00 	cp.b	r8,r10
80003f1a:	c0 b1       	brne	80003f30 <set_shelves_active_inactive+0xb0>
80003f1c:	b2 c8       	st.b	r9[0x4],r8
80003f1e:	e0 68 0b 46 	mov	r8,2886
80003f22:	11 89       	ld.ub	r9,r8[0x0]
80003f24:	2f f9       	sub	r9,-1
80003f26:	fe cc de be 	sub	r12,pc,-8514
80003f2a:	b0 89       	st.b	r8[0x0],r9
80003f2c:	fe b0 f2 d8 	rcall	800024dc <print_ecdbg>
80003f30:	e0 69 02 f0 	mov	r9,752
80003f34:	30 08       	mov	r8,0
80003f36:	f3 3a 00 24 	ld.ub	r10,r9[36]
80003f3a:	f0 0a 18 00 	cp.b	r10,r8
80003f3e:	c2 40       	breq	80003f86 <set_shelves_active_inactive+0x106>
80003f40:	f3 39 00 32 	ld.ub	r9,r9[50]
80003f44:	f0 09 18 00 	cp.b	r9,r8
80003f48:	c1 f0       	breq	80003f86 <set_shelves_active_inactive+0x106>
80003f4a:	e0 69 03 36 	mov	r9,822
80003f4e:	f3 3a 00 0b 	ld.ub	r10,r9[11]
80003f52:	f0 0a 18 00 	cp.b	r10,r8
80003f56:	c1 80       	breq	80003f86 <set_shelves_active_inactive+0x106>
80003f58:	e0 6b 0b 1c 	mov	r11,2844
80003f5c:	f7 3a 00 16 	ld.ub	r10,r11[22]
80003f60:	f0 0a 18 00 	cp.b	r10,r8
80003f64:	c1 11       	brne	80003f86 <set_shelves_active_inactive+0x106>
80003f66:	f7 38 00 1b 	ld.ub	r8,r11[27]
80003f6a:	f4 08 18 00 	cp.b	r8,r10
80003f6e:	c0 c1       	brne	80003f86 <set_shelves_active_inactive+0x106>
80003f70:	f3 68 00 08 	st.b	r9[8],r8
80003f74:	e0 68 0b 46 	mov	r8,2886
80003f78:	11 89       	ld.ub	r9,r8[0x0]
80003f7a:	2f f9       	sub	r9,-1
80003f7c:	fe cc df 00 	sub	r12,pc,-8448
80003f80:	b0 89       	st.b	r8[0x0],r9
80003f82:	fe b0 f2 ad 	rcall	800024dc <print_ecdbg>
80003f86:	e0 69 02 f0 	mov	r9,752
80003f8a:	30 08       	mov	r8,0
80003f8c:	f3 3a 00 32 	ld.ub	r10,r9[50]
80003f90:	f0 0a 18 00 	cp.b	r10,r8
80003f94:	c2 60       	breq	80003fe0 <set_shelves_active_inactive+0x160>
80003f96:	f3 39 00 40 	ld.ub	r9,r9[64]
80003f9a:	f0 09 18 00 	cp.b	r9,r8
80003f9e:	c2 10       	breq	80003fe0 <set_shelves_active_inactive+0x160>
80003fa0:	e0 69 03 36 	mov	r9,822
80003fa4:	f3 3a 00 0f 	ld.ub	r10,r9[15]
80003fa8:	f0 0a 18 00 	cp.b	r10,r8
80003fac:	c1 a0       	breq	80003fe0 <set_shelves_active_inactive+0x160>
80003fae:	e0 6b 0b 1c 	mov	r11,2844
80003fb2:	f7 3a 00 20 	ld.ub	r10,r11[32]
80003fb6:	f0 0a 18 00 	cp.b	r10,r8
80003fba:	c1 31       	brne	80003fe0 <set_shelves_active_inactive+0x160>
80003fbc:	f7 38 00 25 	ld.ub	r8,r11[37]
80003fc0:	f4 08 18 00 	cp.b	r8,r10
80003fc4:	c0 e1       	brne	80003fe0 <set_shelves_active_inactive+0x160>
80003fc6:	f3 68 00 0c 	st.b	r9[12],r8
80003fca:	e0 68 0b 46 	mov	r8,2886
80003fce:	11 89       	ld.ub	r9,r8[0x0]
80003fd0:	2f f9       	sub	r9,-1
80003fd2:	fe cc df 42 	sub	r12,pc,-8382
80003fd6:	b0 89       	st.b	r8[0x0],r9
80003fd8:	fe b0 f2 82 	rcall	800024dc <print_ecdbg>
80003fdc:	c0 28       	rjmp	80003fe0 <set_shelves_active_inactive+0x160>
80003fde:	d7 03       	nop
80003fe0:	d8 02       	popm	pc
80003fe2:	d7 03       	nop

80003fe4 <door_latch_open_kill_all_shelves>:
80003fe4:	d4 01       	pushm	lr
80003fe6:	30 0b       	mov	r11,0
80003fe8:	16 9c       	mov	r12,r11
80003fea:	fe b0 fc ad 	rcall	80003944 <led_shelf>
80003fee:	30 0b       	mov	r11,0
80003ff0:	30 1c       	mov	r12,1
80003ff2:	fe b0 fc a9 	rcall	80003944 <led_shelf>
80003ff6:	30 0b       	mov	r11,0
80003ff8:	30 2c       	mov	r12,2
80003ffa:	fe b0 fc a5 	rcall	80003944 <led_shelf>
80003ffe:	30 0b       	mov	r11,0
80004000:	30 3c       	mov	r12,3
80004002:	fe b0 fc a1 	rcall	80003944 <led_shelf>
80004006:	d8 02       	popm	pc

80004008 <write_usage_to_flash>:
80004008:	d4 01       	pushm	lr
8000400a:	58 0c       	cp.w	r12,0
8000400c:	c0 81       	brne	8000401c <write_usage_to_flash+0x14>
8000400e:	30 19       	mov	r9,1
80004010:	e0 6a 03 c1 	mov	r10,961
80004014:	e0 6b 03 80 	mov	r11,896
80004018:	48 6c       	lddpc	r12,80004030 <write_usage_to_flash+0x28>
8000401a:	c0 78       	rjmp	80004028 <write_usage_to_flash+0x20>
8000401c:	30 19       	mov	r9,1
8000401e:	e0 6a 03 c1 	mov	r10,961
80004022:	e0 6b 03 80 	mov	r11,896
80004026:	48 4c       	lddpc	r12,80004034 <write_usage_to_flash+0x2c>
80004028:	fe b0 f6 b4 	rcall	80002d90 <flashc_memcpy>
8000402c:	d8 02       	popm	pc
8000402e:	d7 03       	nop
80004030:	80 07       	ld.sh	r7,r0[0x0]
80004032:	f0 00       	*unknown*
80004034:	80 07       	ld.sh	r7,r0[0x0]
80004036:	f8 00       	*unknown*

80004038 <increment_ledBoard_usage_min>:
80004038:	d4 31       	pushm	r0-r7,lr
8000403a:	30 09       	mov	r9,0
8000403c:	30 17       	mov	r7,1
8000403e:	e0 6c 03 36 	mov	r12,822
80004042:	12 93       	mov	r3,r9
80004044:	30 26       	mov	r6,2
80004046:	12 9e       	mov	lr,r9
80004048:	0e 9b       	mov	r11,r7
8000404a:	19 88       	ld.ub	r8,r12[0x0]
8000404c:	e6 08 18 00 	cp.b	r8,r3
80004050:	e0 81 00 a4 	brne	80004198 <increment_ledBoard_usage_min+0x160>
80004054:	ec 09 18 00 	cp.b	r9,r6
80004058:	c1 00       	breq	80004078 <increment_ledBoard_usage_min+0x40>
8000405a:	30 38       	mov	r8,3
8000405c:	f0 09 18 00 	cp.b	r9,r8
80004060:	c0 f0       	breq	8000407e <increment_ledBoard_usage_min+0x46>
80004062:	f2 0b 18 00 	cp.b	r11,r9
80004066:	f9 ba 00 02 	moveq	r10,2
8000406a:	f9 ba 01 01 	movne	r10,1
8000406e:	f9 b8 00 01 	moveq	r8,1
80004072:	f9 b8 01 00 	movne	r8,0
80004076:	c0 68       	rjmp	80004082 <increment_ledBoard_usage_min+0x4a>
80004078:	30 3a       	mov	r10,3
8000407a:	30 28       	mov	r8,2
8000407c:	c0 38       	rjmp	80004082 <increment_ledBoard_usage_min+0x4a>
8000407e:	30 4a       	mov	r10,4
80004080:	30 38       	mov	r8,3
80004082:	e0 65 03 61 	mov	r5,865
80004086:	ea 0a 07 0a 	ld.ub	r10,r5[r10]
8000408a:	f4 0a 00 2a 	add	r10,r10,r10<<0x2
8000408e:	e0 64 03 80 	mov	r4,896
80004092:	ea 08 07 05 	ld.ub	r5,r5[r8]
80004096:	e8 0a 00 12 	add	r2,r4,r10<<0x1
8000409a:	ea 05 00 25 	add	r5,r5,r5<<0x2
8000409e:	30 0a       	mov	r10,0
800040a0:	e8 05 00 15 	add	r5,r4,r5<<0x1
800040a4:	0a 98       	mov	r8,r5
800040a6:	c0 78       	rjmp	800040b4 <increment_ledBoard_usage_min+0x7c>
800040a8:	f4 0b 18 00 	cp.b	r11,r10
800040ac:	e4 08 17 00 	moveq	r8,r2
800040b0:	ea 08 17 10 	movne	r8,r5
800040b4:	f1 34 00 09 	ld.ub	r4,r8[9]
800040b8:	08 91       	mov	r1,r4
800040ba:	2f f4       	sub	r4,-1
800040bc:	e9 d4 c0 04 	bfextu	r4,r4,0x0,0x4
800040c0:	e3 d4 d0 04 	bfins	r1,r4,0x0,0x4
800040c4:	f1 61 00 09 	st.b	r8[9],r1
800040c8:	58 94       	cp.w	r4,9
800040ca:	e0 8a 00 62 	brle	8000418e <increment_ledBoard_usage_min+0x156>
800040ce:	e9 d1 c0 08 	bfextu	r4,r1,0x0,0x8
800040d2:	e2 14 00 f0 	andl	r4,0xf0,COH
800040d6:	08 91       	mov	r1,r4
800040d8:	e1 d4 c0 84 	bfextu	r0,r4,0x4,0x4
800040dc:	00 94       	mov	r4,r0
800040de:	2f f4       	sub	r4,-1
800040e0:	08 90       	mov	r0,r4
800040e2:	e9 d0 c0 04 	bfextu	r4,r0,0x0,0x4
800040e6:	e3 d4 d0 84 	bfins	r1,r4,0x4,0x4
800040ea:	f1 61 00 09 	st.b	r8[9],r1
800040ee:	58 54       	cp.w	r4,5
800040f0:	e0 8a 00 4f 	brle	8000418e <increment_ledBoard_usage_min+0x156>
800040f4:	f1 34 00 08 	ld.ub	r4,r8[8]
800040f8:	f1 30 00 09 	ld.ub	r0,r8[9]
800040fc:	08 91       	mov	r1,r4
800040fe:	e1 de d0 84 	bfins	r0,lr,0x4,0x4
80004102:	2f f4       	sub	r4,-1
80004104:	f1 60 00 09 	st.b	r8[9],r0
80004108:	e9 d4 c0 04 	bfextu	r4,r4,0x0,0x4
8000410c:	e3 d4 d0 04 	bfins	r1,r4,0x0,0x4
80004110:	f1 61 00 08 	st.b	r8[8],r1
80004114:	58 94       	cp.w	r4,9
80004116:	e0 8a 00 3c 	brle	8000418e <increment_ledBoard_usage_min+0x156>
8000411a:	e9 d1 c0 08 	bfextu	r4,r1,0x0,0x8
8000411e:	e2 14 00 f0 	andl	r4,0xf0,COH
80004122:	08 91       	mov	r1,r4
80004124:	e1 d4 c0 84 	bfextu	r0,r4,0x4,0x4
80004128:	00 94       	mov	r4,r0
8000412a:	2f f4       	sub	r4,-1
8000412c:	08 90       	mov	r0,r4
8000412e:	e9 d0 c0 04 	bfextu	r4,r0,0x0,0x4
80004132:	e3 d4 d0 84 	bfins	r1,r4,0x4,0x4
80004136:	f1 61 00 08 	st.b	r8[8],r1
8000413a:	58 94       	cp.w	r4,9
8000413c:	e0 8a 00 29 	brle	8000418e <increment_ledBoard_usage_min+0x156>
80004140:	11 f4       	ld.ub	r4,r8[0x7]
80004142:	f1 30 00 08 	ld.ub	r0,r8[8]
80004146:	08 91       	mov	r1,r4
80004148:	e1 de d0 84 	bfins	r0,lr,0x4,0x4
8000414c:	2f f4       	sub	r4,-1
8000414e:	f1 60 00 08 	st.b	r8[8],r0
80004152:	e9 d4 c0 04 	bfextu	r4,r4,0x0,0x4
80004156:	e3 d4 d0 04 	bfins	r1,r4,0x0,0x4
8000415a:	b0 f1       	st.b	r8[0x7],r1
8000415c:	58 94       	cp.w	r4,9
8000415e:	e0 8a 00 18 	brle	8000418e <increment_ledBoard_usage_min+0x156>
80004162:	e9 d1 c0 08 	bfextu	r4,r1,0x0,0x8
80004166:	e2 14 00 f0 	andl	r4,0xf0,COH
8000416a:	08 91       	mov	r1,r4
8000416c:	e1 d4 c0 84 	bfextu	r0,r4,0x4,0x4
80004170:	00 94       	mov	r4,r0
80004172:	2f f4       	sub	r4,-1
80004174:	08 90       	mov	r0,r4
80004176:	e9 d0 c0 04 	bfextu	r4,r0,0x0,0x4
8000417a:	e3 d4 d0 84 	bfins	r1,r4,0x4,0x4
8000417e:	b0 f1       	st.b	r8[0x7],r1
80004180:	58 14       	cp.w	r4,1
80004182:	e0 8a 00 06 	brle	8000418e <increment_ledBoard_usage_min+0x156>
80004186:	11 e4       	ld.ub	r4,r8[0x6]
80004188:	e9 d7 d0 e1 	bfins	r4,r7,0x7,0x1
8000418c:	b0 e4       	st.b	r8[0x6],r4
8000418e:	2f fa       	sub	r10,-1
80004190:	5c 5a       	castu.b	r10
80004192:	ec 0a 18 00 	cp.b	r10,r6
80004196:	c8 91       	brne	800040a8 <increment_ledBoard_usage_min+0x70>
80004198:	2f f9       	sub	r9,-1
8000419a:	2f cc       	sub	r12,-4
8000419c:	5c 59       	castu.b	r9
8000419e:	30 48       	mov	r8,4
800041a0:	f0 09 18 00 	cp.b	r9,r8
800041a4:	fe 91 ff 53 	brne	8000404a <increment_ledBoard_usage_min+0x12>
800041a8:	e0 67 0b 45 	mov	r7,2885
800041ac:	0f 8c       	ld.ub	r12,r7[0x0]
800041ae:	c2 df       	rcall	80004008 <write_usage_to_flash>
800041b0:	0f 88       	ld.ub	r8,r7[0x0]
800041b2:	2f f8       	sub	r8,-1
800041b4:	f1 d8 c0 01 	bfextu	r8,r8,0x0,0x1
800041b8:	ae 88       	st.b	r7[0x0],r8
800041ba:	d8 32       	popm	r0-r7,pc

800041bc <copy_usage_to_usage>:
800041bc:	d4 01       	pushm	lr
800041be:	f6 09 15 05 	lsl	r9,r11,0x5
800041c2:	f8 08 15 05 	lsl	r8,r12,0x5
800041c6:	f2 0b 01 0b 	sub	r11,r9,r11
800041ca:	f0 0c 01 0c 	sub	r12,r8,r12
800041ce:	f8 09 15 05 	lsl	r9,r12,0x5
800041d2:	e0 68 03 80 	mov	r8,896
800041d6:	f2 0c 01 0c 	sub	r12,r9,r12
800041da:	f6 09 15 05 	lsl	r9,r11,0x5
800041de:	f0 0c 00 0c 	add	r12,r8,r12
800041e2:	f2 0b 01 0b 	sub	r11,r9,r11
800041e6:	e0 6a 03 c1 	mov	r10,961
800041ea:	f0 0b 00 0b 	add	r11,r8,r11
800041ee:	e0 a0 0b 42 	rcall	80005872 <memcpy>
800041f2:	d8 02       	popm	pc

800041f4 <add_new_led_board_sides_to_usage>:
800041f4:	d4 31       	pushm	r0-r7,lr
800041f6:	20 2d       	sub	sp,8
800041f8:	f8 08 15 05 	lsl	r8,r12,0x5
800041fc:	18 18       	sub	r8,r12
800041fe:	f0 09 15 05 	lsl	r9,r8,0x5
80004202:	30 07       	mov	r7,0
80004204:	f2 08 01 08 	sub	r8,r9,r8
80004208:	e0 6a 03 80 	mov	r10,896
8000420c:	0e 99       	mov	r9,r7
8000420e:	ee 07 00 2b 	add	r11,r7,r7<<0x2
80004212:	f0 0b 00 1b 	add	r11,r8,r11<<0x1
80004216:	f4 0b 00 0b 	add	r11,r10,r11
8000421a:	17 eb       	ld.ub	r11,r11[0x6]
8000421c:	f7 db c0 a1 	bfextu	r11,r11,0x5,0x1
80004220:	f2 0b 18 00 	cp.b	r11,r9
80004224:	c1 81       	brne	80004254 <add_new_led_board_sides_to_usage+0x60>
80004226:	5c 57       	castu.b	r7
80004228:	f8 08 15 05 	lsl	r8,r12,0x5
8000422c:	e0 64 0b 1c 	mov	r4,2844
80004230:	e0 65 03 61 	mov	r5,865
80004234:	30 06       	mov	r6,0
80004236:	ea 0c 00 35 	add	r5,r5,r12<<0x3
8000423a:	2f c4       	sub	r4,-4
8000423c:	f0 0c 01 0c 	sub	r12,r8,r12
80004240:	e0 60 02 f0 	mov	r0,752
80004244:	f8 08 15 05 	lsl	r8,r12,0x5
80004248:	0c 92       	mov	r2,r6
8000424a:	18 18       	sub	r8,r12
8000424c:	3f f1       	mov	r1,-1
8000424e:	e0 69 03 80 	mov	r9,896
80004252:	c0 88       	rjmp	80004262 <add_new_led_board_sides_to_usage+0x6e>
80004254:	2f f7       	sub	r7,-1
80004256:	e0 47 00 60 	cp.w	r7,96
8000425a:	cd a1       	brne	8000420e <add_new_led_board_sides_to_usage+0x1a>
8000425c:	e0 67 00 ff 	mov	r7,255
80004260:	ce 4b       	rjmp	80004228 <add_new_led_board_sides_to_usage+0x34>
80004262:	09 8a       	ld.ub	r10,r4[0x0]
80004264:	2f b4       	sub	r4,-5
80004266:	f4 0b 15 03 	lsl	r11,r10,0x3
8000426a:	14 1b       	sub	r11,r10
8000426c:	e0 0b 00 1b 	add	r11,r0,r11<<0x1
80004270:	f7 3a 00 08 	ld.ub	r10,r11[8]
80004274:	e4 0a 18 00 	cp.b	r10,r2
80004278:	c1 e0       	breq	800042b4 <add_new_led_board_sides_to_usage+0xc0>
8000427a:	0b 8a       	ld.ub	r10,r5[0x0]
8000427c:	e2 0a 18 00 	cp.b	r10,r1
80004280:	c1 a1       	brne	800042b4 <add_new_led_board_sides_to_usage+0xc0>
80004282:	2f fb       	sub	r11,-1
80004284:	ee 07 00 23 	add	r3,r7,r7<<0x2
80004288:	30 6a       	mov	r10,6
8000428a:	f0 03 00 13 	add	r3,r8,r3<<0x1
8000428e:	50 09       	stdsp	sp[0x0],r9
80004290:	12 03       	add	r3,r9
80004292:	50 18       	stdsp	sp[0x4],r8
80004294:	06 9c       	mov	r12,r3
80004296:	e0 a0 0b 99 	rcall	800059c8 <strncpy>
8000429a:	aa 87       	st.b	r5[0x0],r7
8000429c:	2f c3       	sub	r3,-4
8000429e:	2f f7       	sub	r7,-1
800042a0:	07 aa       	ld.ub	r10,r3[0x2]
800042a2:	30 1b       	mov	r11,1
800042a4:	f5 d6 d0 c1 	bfins	r10,r6,0x6,0x1
800042a8:	5c 57       	castu.b	r7
800042aa:	f5 db d0 a1 	bfins	r10,r11,0x5,0x1
800042ae:	a6 aa       	st.b	r3[0x2],r10
800042b0:	40 18       	lddsp	r8,sp[0x4]
800042b2:	40 09       	lddsp	r9,sp[0x0]
800042b4:	2f f6       	sub	r6,-1
800042b6:	2f f5       	sub	r5,-1
800042b8:	5c 56       	castu.b	r6
800042ba:	30 8a       	mov	r10,8
800042bc:	f4 06 18 00 	cp.b	r6,r10
800042c0:	cd 11       	brne	80004262 <add_new_led_board_sides_to_usage+0x6e>
800042c2:	2f ed       	sub	sp,-8
800042c4:	d8 32       	popm	r0-r7,pc
800042c6:	d7 03       	nop

800042c8 <test_flash>:
800042c8:	d4 31       	pushm	r0-r7,lr
800042ca:	20 1d       	sub	sp,4
800042cc:	fe c8 e0 d8 	sub	r8,pc,-7976
800042d0:	70 08       	ld.w	r8,r8[0x0]
800042d2:	fa c7 ff fc 	sub	r7,sp,-4
800042d6:	49 26       	lddpc	r6,8000431c <test_flash+0x54>
800042d8:	0e d8       	st.w	--r7,r8
800042da:	fa c4 ff fc 	sub	r4,sp,-4
800042de:	49 18       	lddpc	r8,80004320 <test_flash+0x58>
800042e0:	58 0c       	cp.w	r12,0
800042e2:	f0 06 17 10 	movne	r6,r8
800042e6:	ec c3 fc 40 	sub	r3,r6,-960
800042ea:	0f 85       	ld.ub	r5,r7[0x0]
800042ec:	30 19       	mov	r9,1
800042ee:	e0 6a 03 c1 	mov	r10,961
800042f2:	0a 9b       	mov	r11,r5
800042f4:	0c 9c       	mov	r12,r6
800042f6:	fe b0 f5 47 	rcall	80002d84 <flashc_memset8>
800042fa:	0c 98       	mov	r8,r6
800042fc:	11 89       	ld.ub	r9,r8[0x0]
800042fe:	ea 09 18 00 	cp.b	r9,r5
80004302:	c0 30       	breq	80004308 <test_flash+0x40>
80004304:	30 1c       	mov	r12,1
80004306:	c0 98       	rjmp	80004318 <test_flash+0x50>
80004308:	06 38       	cp.w	r8,r3
8000430a:	c0 30       	breq	80004310 <test_flash+0x48>
8000430c:	2f f8       	sub	r8,-1
8000430e:	cf 7b       	rjmp	800042fc <test_flash+0x34>
80004310:	2f f7       	sub	r7,-1
80004312:	08 37       	cp.w	r7,r4
80004314:	ce b1       	brne	800042ea <test_flash+0x22>
80004316:	30 0c       	mov	r12,0
80004318:	2f fd       	sub	sp,-4
8000431a:	d8 32       	popm	r0-r7,pc
8000431c:	80 07       	ld.sh	r7,r0[0x0]
8000431e:	f0 00       	*unknown*
80004320:	80 07       	ld.sh	r7,r0[0x0]
80004322:	f8 00       	*unknown*

80004324 <usage_idx>:
80004324:	d4 31       	pushm	r0-r7,lr
80004326:	20 2d       	sub	sp,8
80004328:	f8 02 15 05 	lsl	r2,r12,0x5
8000432c:	18 12       	sub	r2,r12
8000432e:	e4 08 15 05 	lsl	r8,r2,0x5
80004332:	e0 66 0b 1c 	mov	r6,2844
80004336:	30 07       	mov	r7,0
80004338:	f0 02 01 02 	sub	r2,r8,r2
8000433c:	16 99       	mov	r9,r11
8000433e:	14 90       	mov	r0,r10
80004340:	2f c6       	sub	r6,-4
80004342:	e0 61 02 f0 	mov	r1,752
80004346:	0e 93       	mov	r3,r7
80004348:	e0 68 03 80 	mov	r8,896
8000434c:	0d 8a       	ld.ub	r10,r6[0x0]
8000434e:	0e 95       	mov	r5,r7
80004350:	f4 0b 15 03 	lsl	r11,r10,0x3
80004354:	2f b6       	sub	r6,-5
80004356:	f6 0a 01 0a 	sub	r10,r11,r10
8000435a:	5c 55       	castu.b	r5
8000435c:	e2 0a 00 1a 	add	r10,r1,r10<<0x1
80004360:	f5 3a 00 08 	ld.ub	r10,r10[8]
80004364:	e6 0a 18 00 	cp.b	r10,r3
80004368:	c1 40       	breq	80004390 <usage_idx+0x6c>
8000436a:	12 9c       	mov	r12,r9
8000436c:	50 19       	stdsp	sp[0x4],r9
8000436e:	50 08       	stdsp	sp[0x0],r8
80004370:	ee 07 00 24 	add	r4,r7,r7<<0x2
80004374:	e4 04 00 14 	add	r4,r2,r4<<0x1
80004378:	10 04       	add	r4,r8
8000437a:	08 9b       	mov	r11,r4
8000437c:	e0 a0 0b 36 	rcall	800059e8 <strstr>
80004380:	40 19       	lddsp	r9,sp[0x4]
80004382:	40 08       	lddsp	r8,sp[0x0]
80004384:	c0 60       	breq	80004390 <usage_idx+0x6c>
80004386:	09 ea       	ld.ub	r10,r4[0x6]
80004388:	f5 da c0 c1 	bfextu	r10,r10,0x6,0x1
8000438c:	00 3a       	cp.w	r10,r0
8000438e:	c0 70       	breq	8000439c <usage_idx+0x78>
80004390:	2f f7       	sub	r7,-1
80004392:	e0 47 00 60 	cp.w	r7,96
80004396:	cd b1       	brne	8000434c <usage_idx+0x28>
80004398:	e0 65 00 ff 	mov	r5,255
8000439c:	0a 9c       	mov	r12,r5
8000439e:	2f ed       	sub	sp,-8
800043a0:	d8 32       	popm	r0-r7,pc
800043a2:	d7 03       	nop

800043a4 <load_usage_indeces>:
800043a4:	d4 31       	pushm	r0-r7,lr
800043a6:	e0 65 02 f0 	mov	r5,752
800043aa:	18 97       	mov	r7,r12
800043ac:	30 0a       	mov	r10,0
800043ae:	ea cb ff ff 	sub	r11,r5,-1
800043b2:	cb 9f       	rcall	80004324 <usage_idx>
800043b4:	e0 64 03 61 	mov	r4,865
800043b8:	ea c6 ff f1 	sub	r6,r5,-15
800043bc:	e8 07 0b 3c 	st.b	r4[r7<<0x3],r12
800043c0:	0c 9b       	mov	r11,r6
800043c2:	30 1a       	mov	r10,1
800043c4:	0e 9c       	mov	r12,r7
800043c6:	ca ff       	rcall	80004324 <usage_idx>
800043c8:	0c 9b       	mov	r11,r6
800043ca:	30 0a       	mov	r10,0
800043cc:	e8 07 00 36 	add	r6,r4,r7<<0x3
800043d0:	ac 9c       	st.b	r6[0x1],r12
800043d2:	0e 9c       	mov	r12,r7
800043d4:	ca 8f       	rcall	80004324 <usage_idx>
800043d6:	ea c3 ff e3 	sub	r3,r5,-29
800043da:	30 1a       	mov	r10,1
800043dc:	06 9b       	mov	r11,r3
800043de:	ac ac       	st.b	r6[0x2],r12
800043e0:	0e 9c       	mov	r12,r7
800043e2:	ca 1f       	rcall	80004324 <usage_idx>
800043e4:	06 9b       	mov	r11,r3
800043e6:	ac bc       	st.b	r6[0x3],r12
800043e8:	30 0a       	mov	r10,0
800043ea:	0e 9c       	mov	r12,r7
800043ec:	c9 cf       	rcall	80004324 <usage_idx>
800043ee:	ea c4 ff d5 	sub	r4,r5,-43
800043f2:	ac cc       	st.b	r6[0x4],r12
800043f4:	30 1a       	mov	r10,1
800043f6:	08 9b       	mov	r11,r4
800043f8:	0e 9c       	mov	r12,r7
800043fa:	c9 5f       	rcall	80004324 <usage_idx>
800043fc:	08 9b       	mov	r11,r4
800043fe:	ac dc       	st.b	r6[0x5],r12
80004400:	30 0a       	mov	r10,0
80004402:	0e 9c       	mov	r12,r7
80004404:	c9 0f       	rcall	80004324 <usage_idx>
80004406:	ea cb ff c7 	sub	r11,r5,-57
8000440a:	ac ec       	st.b	r6[0x6],r12
8000440c:	30 1a       	mov	r10,1
8000440e:	0e 9c       	mov	r12,r7
80004410:	c8 af       	rcall	80004324 <usage_idx>
80004412:	ac fc       	st.b	r6[0x7],r12
80004414:	d8 32       	popm	r0-r7,pc
80004416:	d7 03       	nop

80004418 <adc_process_init>:
80004418:	d4 21       	pushm	r4-r7,lr
8000441a:	30 6b       	mov	r11,6
8000441c:	fe cc e3 f8 	sub	r12,pc,-7176
80004420:	fe b0 f5 5c 	rcall	80002ed8 <gpio_enable_module>
80004424:	30 c6       	mov	r6,12
80004426:	33 07       	mov	r7,48
80004428:	0c 9b       	mov	r11,r6
8000442a:	6e 0c       	ld.w	r12,r7[0x0]
8000442c:	fe b0 f0 a0 	rcall	8000256c <adcifa_get_calibration_data>
80004430:	0c 9b       	mov	r11,r6
80004432:	6e 0c       	ld.w	r12,r7[0x0]
80004434:	e0 6a 12 00 	mov	r10,4608
80004438:	ea 1a 00 7a 	orh	r10,0x7a
8000443c:	fe b0 f0 b2 	rcall	800025a0 <adcifa_configure>
80004440:	d8 22       	popm	r4-r7,pc
80004442:	d7 03       	nop

80004444 <init_sys_clocks>:
80004444:	d4 01       	pushm	lr
80004446:	20 3d       	sub	sp,12
80004448:	30 08       	mov	r8,0
8000444a:	50 28       	stdsp	sp[0x8],r8
8000444c:	50 18       	stdsp	sp[0x4],r8
8000444e:	30 28       	mov	r8,2
80004450:	50 08       	stdsp	sp[0x0],r8
80004452:	fe b0 f6 c1 	rcall	800031d4 <scif_start_rc8M>
80004456:	30 5c       	mov	r12,5
80004458:	fe b0 f6 90 	rcall	80003178 <pm_set_mclk_source>
8000445c:	1a 9b       	mov	r11,sp
8000445e:	30 9c       	mov	r12,9
80004460:	fe b0 f6 9b 	rcall	80003196 <scif_start_gclk>
80004464:	30 1b       	mov	r11,1
80004466:	35 3c       	mov	r12,83
80004468:	fe b0 f4 f6 	rcall	80002e54 <gpio_enable_module_pin>
8000446c:	2f dd       	sub	sp,-12
8000446e:	d8 02       	popm	pc

80004470 <adc_process_task>:
80004470:	d4 21       	pushm	r4-r7,lr
80004472:	f8 0c 00 18 	add	r8,r12,r12<<0x1
80004476:	18 97       	mov	r7,r12
80004478:	33 06       	mov	r6,48
8000447a:	32 0a       	mov	r10,32
8000447c:	30 0b       	mov	r11,0
8000447e:	33 49       	mov	r9,52
80004480:	6c 0c       	ld.w	r12,r6[0x0]
80004482:	10 09       	add	r9,r8
80004484:	fe b0 f0 ee 	rcall	80002660 <adcifa_configure_sequencer>
80004488:	30 0b       	mov	r11,0
8000448a:	6c 0c       	ld.w	r12,r6[0x0]
8000448c:	0c 95       	mov	r5,r6
8000448e:	fe b0 f2 83 	rcall	80002994 <adcifa_start_sequencer>
80004492:	30 24       	mov	r4,2
80004494:	e0 66 02 ee 	mov	r6,750
80004498:	32 0a       	mov	r10,32
8000449a:	0c 99       	mov	r9,r6
8000449c:	30 0b       	mov	r11,0
8000449e:	6a 0c       	ld.w	r12,r5[0x0]
800044a0:	fe b0 f2 8d 	rcall	800029ba <adcifa_get_values_from_sequencer>
800044a4:	e8 0c 18 00 	cp.b	r12,r4
800044a8:	cf 61       	brne	80004494 <adc_process_task+0x24>
800044aa:	8c 08       	ld.sh	r8,r6[0x0]
800044ac:	e0 69 02 e4 	mov	r9,740
800044b0:	10 9c       	mov	r12,r8
800044b2:	f2 07 0a 18 	st.h	r9[r7<<0x1],r8
800044b6:	d8 22       	popm	r4-r7,pc

800044b8 <check_shelf_for_devices>:
800044b8:	d4 21       	pushm	r4-r7,lr
800044ba:	30 1b       	mov	r11,1
800044bc:	18 97       	mov	r7,r12
800044be:	fe b0 fa 43 	rcall	80003944 <led_shelf>
800044c2:	e1 b8 00 42 	mfsr	r8,0x108
800044c6:	e6 69 1a 80 	mov	r9,400000
800044ca:	f0 09 00 0a 	add	r10,r8,r9
800044ce:	e1 b9 00 42 	mfsr	r9,0x108
800044d2:	14 38       	cp.w	r8,r10
800044d4:	e0 88 00 05 	brls	800044de <check_shelf_for_devices+0x26>
800044d8:	10 39       	cp.w	r9,r8
800044da:	cf a2       	brcc	800044ce <check_shelf_for_devices+0x16>
800044dc:	c0 38       	rjmp	800044e2 <check_shelf_for_devices+0x2a>
800044de:	10 39       	cp.w	r9,r8
800044e0:	c0 43       	brcs	800044e8 <check_shelf_for_devices+0x30>
800044e2:	14 39       	cp.w	r9,r10
800044e4:	fe 98 ff f5 	brls	800044ce <check_shelf_for_devices+0x16>
800044e8:	0e 9c       	mov	r12,r7
800044ea:	cc 3f       	rcall	80004470 <adc_process_task>
800044ec:	30 0b       	mov	r11,0
800044ee:	18 96       	mov	r6,r12
800044f0:	0e 9c       	mov	r12,r7
800044f2:	fe b0 fa 29 	rcall	80003944 <led_shelf>
800044f6:	e0 68 08 00 	mov	r8,2048
800044fa:	ec 08 19 00 	cp.h	r8,r6
800044fe:	f9 b6 03 01 	movlo	r6,1
80004502:	f9 b6 02 00 	movhs	r6,0
80004506:	f9 d6 c0 01 	bfextu	r12,r6,0x0,0x1
8000450a:	d8 22       	popm	r4-r7,pc

8000450c <check_shelves_for_devices>:
8000450c:	d4 21       	pushm	r4-r7,lr
8000450e:	30 07       	mov	r7,0
80004510:	e0 65 02 f0 	mov	r5,752
80004514:	0e 96       	mov	r6,r7
80004516:	e0 64 03 36 	mov	r4,822
8000451a:	58 27       	cp.w	r7,2
8000451c:	c2 10       	breq	8000455e <check_shelves_for_devices+0x52>
8000451e:	58 37       	cp.w	r7,3
80004520:	c2 e0       	breq	8000457c <check_shelves_for_devices+0x70>
80004522:	58 17       	cp.w	r7,1
80004524:	c0 f0       	breq	80004542 <check_shelves_for_devices+0x36>
80004526:	eb 38 00 08 	ld.ub	r8,r5[8]
8000452a:	ec 08 18 00 	cp.b	r8,r6
8000452e:	c3 50       	breq	80004598 <check_shelves_for_devices+0x8c>
80004530:	eb 38 00 16 	ld.ub	r8,r5[22]
80004534:	ec 08 18 00 	cp.b	r8,r6
80004538:	c3 00       	breq	80004598 <check_shelves_for_devices+0x8c>
8000453a:	30 0c       	mov	r12,0
8000453c:	cb ef       	rcall	800044b8 <check_shelf_for_devices>
8000453e:	a8 bc       	st.b	r4[0x3],r12
80004540:	c2 c8       	rjmp	80004598 <check_shelves_for_devices+0x8c>
80004542:	eb 38 00 16 	ld.ub	r8,r5[22]
80004546:	ec 08 18 00 	cp.b	r8,r6
8000454a:	c2 70       	breq	80004598 <check_shelves_for_devices+0x8c>
8000454c:	eb 38 00 24 	ld.ub	r8,r5[36]
80004550:	ec 08 18 00 	cp.b	r8,r6
80004554:	c2 20       	breq	80004598 <check_shelves_for_devices+0x8c>
80004556:	0e 9c       	mov	r12,r7
80004558:	cb 0f       	rcall	800044b8 <check_shelf_for_devices>
8000455a:	a8 fc       	st.b	r4[0x7],r12
8000455c:	c1 e8       	rjmp	80004598 <check_shelves_for_devices+0x8c>
8000455e:	eb 38 00 24 	ld.ub	r8,r5[36]
80004562:	ec 08 18 00 	cp.b	r8,r6
80004566:	c1 90       	breq	80004598 <check_shelves_for_devices+0x8c>
80004568:	eb 38 00 32 	ld.ub	r8,r5[50]
8000456c:	ec 08 18 00 	cp.b	r8,r6
80004570:	c1 40       	breq	80004598 <check_shelves_for_devices+0x8c>
80004572:	0e 9c       	mov	r12,r7
80004574:	ca 2f       	rcall	800044b8 <check_shelf_for_devices>
80004576:	e9 6c 00 0b 	st.b	r4[11],r12
8000457a:	c0 f8       	rjmp	80004598 <check_shelves_for_devices+0x8c>
8000457c:	eb 38 00 32 	ld.ub	r8,r5[50]
80004580:	ec 08 18 00 	cp.b	r8,r6
80004584:	c0 a0       	breq	80004598 <check_shelves_for_devices+0x8c>
80004586:	eb 38 00 40 	ld.ub	r8,r5[64]
8000458a:	ec 08 18 00 	cp.b	r8,r6
8000458e:	c0 50       	breq	80004598 <check_shelves_for_devices+0x8c>
80004590:	0e 9c       	mov	r12,r7
80004592:	c9 3f       	rcall	800044b8 <check_shelf_for_devices>
80004594:	e9 6c 00 0f 	st.b	r4[15],r12
80004598:	2f f7       	sub	r7,-1
8000459a:	58 47       	cp.w	r7,4
8000459c:	cb f1       	brne	8000451a <check_shelves_for_devices+0xe>
8000459e:	d8 22       	popm	r4-r7,pc

800045a0 <read_led_board_serial_ids>:
800045a0:	d4 31       	pushm	r0-r7,lr
800045a2:	30 1c       	mov	r12,1
800045a4:	fe b0 ed 32 	rcall	80002008 <SetSpeed>
800045a8:	30 0c       	mov	r12,0
800045aa:	fe b0 ee ef 	rcall	80002388 <OWTouchReset>
800045ae:	5f 08       	sreq	r8
800045b0:	e0 63 02 f0 	mov	r3,752
800045b4:	30 1c       	mov	r12,1
800045b6:	e7 68 00 08 	st.b	r3[8],r8
800045ba:	fe b0 ee e7 	rcall	80002388 <OWTouchReset>
800045be:	5f 08       	sreq	r8
800045c0:	30 2c       	mov	r12,2
800045c2:	e7 68 00 16 	st.b	r3[22],r8
800045c6:	fe b0 ee e1 	rcall	80002388 <OWTouchReset>
800045ca:	5f 08       	sreq	r8
800045cc:	30 3c       	mov	r12,3
800045ce:	e7 68 00 24 	st.b	r3[36],r8
800045d2:	fe b0 ee db 	rcall	80002388 <OWTouchReset>
800045d6:	5f 08       	sreq	r8
800045d8:	30 07       	mov	r7,0
800045da:	e7 68 00 32 	st.b	r3[50],r8
800045de:	30 4c       	mov	r12,4
800045e0:	06 94       	mov	r4,r3
800045e2:	fe b0 ee d3 	rcall	80002388 <OWTouchReset>
800045e6:	e6 c6 ff f8 	sub	r6,r3,-8
800045ea:	58 0c       	cp.w	r12,0
800045ec:	5f 08       	sreq	r8
800045ee:	0e 95       	mov	r5,r7
800045f0:	e7 68 00 40 	st.b	r3[64],r8
800045f4:	0d 88       	ld.ub	r8,r6[0x0]
800045f6:	ea 08 18 00 	cp.b	r8,r5
800045fa:	c1 d0       	breq	80004634 <read_led_board_serial_ids+0x94>
800045fc:	33 3b       	mov	r11,51
800045fe:	0e 9c       	mov	r12,r7
80004600:	fe b0 ee b6 	rcall	8000236c <OWWriteByte>
80004604:	0e 9c       	mov	r12,r7
80004606:	ee 02 15 03 	lsl	r2,r7,0x3
8000460a:	fe b0 ed f9 	rcall	800021fc <OWReadByte>
8000460e:	0e 12       	sub	r2,r7
80004610:	30 03       	mov	r3,0
80004612:	e8 02 00 12 	add	r2,r4,r2<<0x1
80004616:	ed 6c ff f8 	st.b	r6[-8],r12
8000461a:	2f f2       	sub	r2,-1
8000461c:	0e 9c       	mov	r12,r7
8000461e:	fe b0 ed ef 	rcall	800021fc <OWReadByte>
80004622:	04 cc       	st.b	r2++,r12
80004624:	2f f3       	sub	r3,-1
80004626:	58 63       	cp.w	r3,6
80004628:	cf a1       	brne	8000461c <read_led_board_serial_ids+0x7c>
8000462a:	0e 9c       	mov	r12,r7
8000462c:	fe b0 ed e8 	rcall	800021fc <OWReadByte>
80004630:	ed 6c ff ff 	st.b	r6[-1],r12
80004634:	2f f7       	sub	r7,-1
80004636:	2f 26       	sub	r6,-14
80004638:	58 57       	cp.w	r7,5
8000463a:	cd d1       	brne	800045f4 <read_led_board_serial_ids+0x54>
8000463c:	d8 32       	popm	r0-r7,pc
8000463e:	d7 03       	nop

80004640 <init_io>:
80004640:	d4 01       	pushm	lr
80004642:	30 0b       	mov	r11,0
80004644:	33 ec       	mov	r12,62
80004646:	fe b0 f4 59 	rcall	80002ef8 <gpio_configure_pin>
8000464a:	30 0b       	mov	r11,0
8000464c:	33 fc       	mov	r12,63
8000464e:	fe b0 f4 55 	rcall	80002ef8 <gpio_configure_pin>
80004652:	30 3b       	mov	r11,3
80004654:	33 3c       	mov	r12,51
80004656:	fe b0 f4 51 	rcall	80002ef8 <gpio_configure_pin>
8000465a:	30 3b       	mov	r11,3
8000465c:	33 4c       	mov	r12,52
8000465e:	fe b0 f4 4d 	rcall	80002ef8 <gpio_configure_pin>
80004662:	30 3b       	mov	r11,3
80004664:	33 5c       	mov	r12,53
80004666:	fe b0 f4 49 	rcall	80002ef8 <gpio_configure_pin>
8000466a:	30 3b       	mov	r11,3
8000466c:	33 6c       	mov	r12,54
8000466e:	fe b0 f4 45 	rcall	80002ef8 <gpio_configure_pin>
80004672:	30 3b       	mov	r11,3
80004674:	33 7c       	mov	r12,55
80004676:	fe b0 f4 41 	rcall	80002ef8 <gpio_configure_pin>
8000467a:	30 1b       	mov	r11,1
8000467c:	37 cc       	mov	r12,124
8000467e:	fe b0 f4 3d 	rcall	80002ef8 <gpio_configure_pin>
80004682:	30 3b       	mov	r11,3
80004684:	31 7c       	mov	r12,23
80004686:	fe b0 f4 39 	rcall	80002ef8 <gpio_configure_pin>
8000468a:	30 3b       	mov	r11,3
8000468c:	31 6c       	mov	r12,22
8000468e:	fe b0 f4 35 	rcall	80002ef8 <gpio_configure_pin>
80004692:	30 1b       	mov	r11,1
80004694:	31 5c       	mov	r12,21
80004696:	fe b0 f4 31 	rcall	80002ef8 <gpio_configure_pin>
8000469a:	d8 02       	popm	pc

8000469c <display_text>:
8000469c:	d4 21       	pushm	r4-r7,lr
8000469e:	30 07       	mov	r7,0
800046a0:	18 95       	mov	r5,r12
800046a2:	36 46       	mov	r6,100
800046a4:	ec 05 03 28 	ld.w	r8,r6[r5<<0x2]
800046a8:	fc 7c 14 00 	mov	r12,-191488
800046ac:	f0 07 07 0b 	ld.ub	r11,r8[r7]
800046b0:	2f f7       	sub	r7,-1
800046b2:	fe b0 f7 eb 	rcall	80003688 <usart_putchar>
800046b6:	58 77       	cp.w	r7,7
800046b8:	cf 61       	brne	800046a4 <display_text+0x8>
800046ba:	d8 22       	popm	r4-r7,pc

800046bc <chassis_error>:
800046bc:	d4 01       	pushm	lr
800046be:	30 4c       	mov	r12,4
800046c0:	ce ef       	rcall	8000469c <display_text>
800046c2:	c0 08       	rjmp	800046c2 <chassis_error+0x6>

800046c4 <init_led_board_info>:
800046c4:	d4 21       	pushm	r4-r7,lr
800046c6:	fe b0 fb 43 	rcall	80003d4c <init_shelf_n_ledBrd_structs>
800046ca:	c6 bf       	rcall	800045a0 <read_led_board_serial_ids>
800046cc:	30 0c       	mov	r12,0
800046ce:	fe b0 fa c1 	rcall	80003c50 <read_usage_struct>
800046d2:	18 97       	mov	r7,r12
800046d4:	30 1c       	mov	r12,1
800046d6:	fe b0 fa bd 	rcall	80003c50 <read_usage_struct>
800046da:	18 96       	mov	r6,r12
800046dc:	58 07       	cp.w	r7,0
800046de:	c0 40       	breq	800046e6 <init_led_board_info+0x22>
800046e0:	30 0c       	mov	r12,0
800046e2:	c6 1e       	rcall	800043a4 <load_usage_indeces>
800046e4:	c0 88       	rjmp	800046f4 <init_led_board_info+0x30>
800046e6:	e0 6a 03 c1 	mov	r10,961
800046ea:	0e 9b       	mov	r11,r7
800046ec:	e0 6c 03 80 	mov	r12,896
800046f0:	e0 a0 09 65 	rcall	800059ba <memset>
800046f4:	58 06       	cp.w	r6,0
800046f6:	c0 40       	breq	800046fe <init_led_board_info+0x3a>
800046f8:	30 1c       	mov	r12,1
800046fa:	c5 5e       	rcall	800043a4 <load_usage_indeces>
800046fc:	c0 a8       	rjmp	80004710 <init_led_board_info+0x4c>
800046fe:	e0 6c 03 80 	mov	r12,896
80004702:	e0 6a 03 c1 	mov	r10,961
80004706:	f8 cc fc 3f 	sub	r12,r12,-961
8000470a:	0c 9b       	mov	r11,r6
8000470c:	e0 a0 09 57 	rcall	800059ba <memset>
80004710:	ed e7 10 09 	or	r9,r6,r7
80004714:	30 08       	mov	r8,0
80004716:	f0 09 18 00 	cp.b	r9,r8
8000471a:	c3 01       	brne	8000477a <init_led_board_info+0xb6>
8000471c:	30 0c       	mov	r12,0
8000471e:	fe b0 fd d5 	rcall	800042c8 <test_flash>
80004722:	30 18       	mov	r8,1
80004724:	f0 0c 18 00 	cp.b	r12,r8
80004728:	c0 21       	brne	8000472c <init_led_board_info+0x68>
8000472a:	cc 9f       	rcall	800046bc <chassis_error>
8000472c:	30 1c       	mov	r12,1
8000472e:	fe b0 fd cd 	rcall	800042c8 <test_flash>
80004732:	30 18       	mov	r8,1
80004734:	f0 0c 18 00 	cp.b	r12,r8
80004738:	c0 21       	brne	8000473c <init_led_board_info+0x78>
8000473a:	cc 1f       	rcall	800046bc <chassis_error>
8000473c:	30 0c       	mov	r12,0
8000473e:	fe b0 fd 5b 	rcall	800041f4 <add_new_led_board_sides_to_usage>
80004742:	e0 68 03 61 	mov	r8,865
80004746:	e0 69 0b 1c 	mov	r9,2844
8000474a:	f0 ca ff f8 	sub	r10,r8,-8
8000474e:	2f f9       	sub	r9,-1
80004750:	11 3b       	ld.ub	r11,r8++
80004752:	b2 8b       	st.b	r9[0x0],r11
80004754:	2f b9       	sub	r9,-5
80004756:	14 38       	cp.w	r8,r10
80004758:	cf c1       	brne	80004750 <init_led_board_info+0x8c>
8000475a:	30 0c       	mov	r12,0
8000475c:	fe b0 fa 28 	rcall	80003bac <calc_usage_csum>
80004760:	e0 68 03 80 	mov	r8,896
80004764:	30 0b       	mov	r11,0
80004766:	f1 6c 03 c0 	st.b	r8[960],r12
8000476a:	30 1c       	mov	r12,1
8000476c:	fe b0 fd 28 	rcall	800041bc <copy_usage_to_usage>
80004770:	30 0c       	mov	r12,0
80004772:	fe b0 fc 4b 	rcall	80004008 <write_usage_to_flash>
80004776:	30 1c       	mov	r12,1
80004778:	c7 58       	rjmp	80004862 <init_led_board_info+0x19e>
8000477a:	f0 06 18 00 	cp.b	r6,r8
8000477e:	5f 1a       	srne	r10
80004780:	f0 07 18 00 	cp.b	r7,r8
80004784:	5f 19       	srne	r9
80004786:	f5 e9 00 09 	and	r9,r10,r9
8000478a:	f0 09 18 00 	cp.b	r9,r8
8000478e:	c2 b0       	breq	800047e4 <init_led_board_info+0x120>
80004790:	30 0c       	mov	r12,0
80004792:	fe b0 fa 89 	rcall	80003ca4 <calc_usage_current_led_boards>
80004796:	18 97       	mov	r7,r12
80004798:	30 1c       	mov	r12,1
8000479a:	fe b0 fa 85 	rcall	80003ca4 <calc_usage_current_led_boards>
8000479e:	18 37       	cp.w	r7,r12
800047a0:	f9 b7 03 01 	movlo	r7,1
800047a4:	f9 b7 02 00 	movhs	r7,0
800047a8:	0e 96       	mov	r6,r7
800047aa:	ec 16 00 01 	eorl	r6,0x1
800047ae:	0c 9c       	mov	r12,r6
800047b0:	fe b0 fd 8c 	rcall	800042c8 <test_flash>
800047b4:	30 18       	mov	r8,1
800047b6:	f0 0c 18 00 	cp.b	r12,r8
800047ba:	c0 21       	brne	800047be <init_led_board_info+0xfa>
800047bc:	c8 0f       	rcall	800046bc <chassis_error>
800047be:	0e 9c       	mov	r12,r7
800047c0:	fe b0 fd 1a 	rcall	800041f4 <add_new_led_board_sides_to_usage>
800047c4:	e0 68 0b 1c 	mov	r8,2844
800047c8:	e0 69 03 61 	mov	r9,865
800047cc:	f0 ca ff d7 	sub	r10,r8,-41
800047d0:	f2 07 00 39 	add	r9,r9,r7<<0x3
800047d4:	2f f8       	sub	r8,-1
800047d6:	13 3b       	ld.ub	r11,r9++
800047d8:	b0 8b       	st.b	r8[0x0],r11
800047da:	2f b8       	sub	r8,-5
800047dc:	14 38       	cp.w	r8,r10
800047de:	cf c1       	brne	800047d6 <init_led_board_info+0x112>
800047e0:	c2 18       	rjmp	80004822 <init_led_board_info+0x15e>
800047e2:	d7 03       	nop
800047e4:	f2 07 18 00 	cp.b	r7,r9
800047e8:	5f 07       	sreq	r7
800047ea:	0e 96       	mov	r6,r7
800047ec:	ec 16 00 01 	eorl	r6,0x1
800047f0:	0c 9c       	mov	r12,r6
800047f2:	fe b0 fd 6b 	rcall	800042c8 <test_flash>
800047f6:	30 18       	mov	r8,1
800047f8:	f0 0c 18 00 	cp.b	r12,r8
800047fc:	c0 21       	brne	80004800 <init_led_board_info+0x13c>
800047fe:	c5 ff       	rcall	800046bc <chassis_error>
80004800:	0e 9c       	mov	r12,r7
80004802:	fe b0 fc f9 	rcall	800041f4 <add_new_led_board_sides_to_usage>
80004806:	e0 68 0b 1c 	mov	r8,2844
8000480a:	e0 69 03 61 	mov	r9,865
8000480e:	f0 ca ff d7 	sub	r10,r8,-41
80004812:	f2 07 00 39 	add	r9,r9,r7<<0x3
80004816:	2f f8       	sub	r8,-1
80004818:	13 3b       	ld.ub	r11,r9++
8000481a:	b0 8b       	st.b	r8[0x0],r11
8000481c:	2f b8       	sub	r8,-5
8000481e:	14 38       	cp.w	r8,r10
80004820:	cf c1       	brne	80004818 <init_led_board_info+0x154>
80004822:	0e 9c       	mov	r12,r7
80004824:	fe b0 f9 c4 	rcall	80003bac <calc_usage_csum>
80004828:	ee 08 15 05 	lsl	r8,r7,0x5
8000482c:	0e 18       	sub	r8,r7
8000482e:	f0 09 15 05 	lsl	r9,r8,0x5
80004832:	f2 08 01 08 	sub	r8,r9,r8
80004836:	e0 69 03 80 	mov	r9,896
8000483a:	f2 08 00 08 	add	r8,r9,r8
8000483e:	0e 9b       	mov	r11,r7
80004840:	f1 6c 03 c0 	st.b	r8[960],r12
80004844:	0c 9c       	mov	r12,r6
80004846:	fe b0 fc bb 	rcall	800041bc <copy_usage_to_usage>
8000484a:	0c 9c       	mov	r12,r6
8000484c:	fe b0 fb de 	rcall	80004008 <write_usage_to_flash>
80004850:	0e 9c       	mov	r12,r7
80004852:	fe b0 fd 3b 	rcall	800042c8 <test_flash>
80004856:	30 18       	mov	r8,1
80004858:	f0 0c 18 00 	cp.b	r12,r8
8000485c:	c0 21       	brne	80004860 <init_led_board_info+0x19c>
8000485e:	c2 ff       	rcall	800046bc <chassis_error>
80004860:	0e 9c       	mov	r12,r7
80004862:	fe b0 fb d3 	rcall	80004008 <write_usage_to_flash>
80004866:	30 09       	mov	r9,0
80004868:	e0 68 0b 45 	mov	r8,2885
8000486c:	b0 89       	st.b	r8[0x0],r9
8000486e:	d8 22       	popm	r4-r7,pc

80004870 <main>:
80004870:	d4 31       	pushm	r0-r7,lr
80004872:	20 bd       	sub	sp,44
80004874:	fe b0 fd e8 	rcall	80004444 <init_sys_clocks>
80004878:	ce 4e       	rcall	80004640 <init_io>
8000487a:	e0 6c 24 00 	mov	r12,9216
8000487e:	ea 1c 00 f4 	orh	r12,0xf4
80004882:	fe b0 ee 6f 	rcall	80002560 <init_ecdbg_rs232>
80004886:	e0 6c 24 00 	mov	r12,9216
8000488a:	ea 1c 00 f4 	orh	r12,0xf4
8000488e:	fe b0 ee 49 	rcall	80002520 <init_display_rs232>
80004892:	fe cc e7 ee 	sub	r12,pc,-6162
80004896:	fe b0 ee 23 	rcall	800024dc <print_ecdbg>
8000489a:	30 0c       	mov	r12,0
8000489c:	c0 0f       	rcall	8000469c <display_text>
8000489e:	fe b0 fd bd 	rcall	80004418 <adc_process_init>
800048a2:	fe b0 f4 2f 	rcall	80003100 <INTC_init_interrupts>
800048a6:	d5 03       	csrf	0x10
800048a8:	fe ca e8 a4 	sub	r10,pc,-5980
800048ac:	74 39       	ld.w	r9,r10[0xc]
800048ae:	fa c8 ff e4 	sub	r8,sp,-28
800048b2:	91 39       	st.w	r8[0xc],r9
800048b4:	fe c9 e8 a0 	sub	r9,pc,-5984
800048b8:	72 3b       	ld.w	r11,r9[0xc]
800048ba:	fa c7 ff f4 	sub	r7,sp,-12
800048be:	8f 3b       	st.w	r7[0xc],r11
800048c0:	74 0b       	ld.w	r11,r10[0x0]
800048c2:	10 9c       	mov	r12,r8
800048c4:	91 0b       	st.w	r8[0x0],r11
800048c6:	74 1b       	ld.w	r11,r10[0x4]
800048c8:	91 1b       	st.w	r8[0x4],r11
800048ca:	74 2a       	ld.w	r10,r10[0x8]
800048cc:	91 2a       	st.w	r8[0x8],r10
800048ce:	72 08       	ld.w	r8,r9[0x0]
800048d0:	8f 08       	st.w	r7[0x0],r8
800048d2:	72 18       	ld.w	r8,r9[0x4]
800048d4:	8f 18       	st.w	r7[0x4],r8
800048d6:	72 28       	ld.w	r8,r9[0x8]
800048d8:	30 2b       	mov	r11,2
800048da:	8f 28       	st.w	r7[0x8],r8
800048dc:	fe b0 f2 fe 	rcall	80002ed8 <gpio_enable_module>
800048e0:	0e 9b       	mov	r11,r7
800048e2:	fe 7c 38 00 	mov	r12,-51200
800048e6:	fe b0 f6 59 	rcall	80003598 <twim_master_init>
800048ea:	36 18       	mov	r8,97
800048ec:	0e 9b       	mov	r11,r7
800048ee:	50 58       	stdsp	sp[0x14],r8
800048f0:	fe 7c 38 00 	mov	r12,-51200
800048f4:	fe b0 f6 52 	rcall	80003598 <twim_master_init>
800048f8:	31 6c       	mov	r12,22
800048fa:	fe b0 f3 ad 	rcall	80003054 <gpio_set_pin_high>
800048fe:	30 07       	mov	r7,0
80004900:	fe b0 f8 82 	rcall	80003a04 <PCA9952_init>
80004904:	e0 68 0b 44 	mov	r8,2884
80004908:	b0 87       	st.b	r8[0x0],r7
8000490a:	cd de       	rcall	800046c4 <init_led_board_info>
8000490c:	31 6c       	mov	r12,22
8000490e:	fe b0 f3 ad 	rcall	80003068 <gpio_set_pin_low>
80004912:	31 7c       	mov	r12,23
80004914:	fe b0 f3 aa 	rcall	80003068 <gpio_set_pin_low>
80004918:	e1 b9 00 42 	mfsr	r9,0x108
8000491c:	e0 68 03 74 	mov	r8,884
80004920:	e0 6a 09 00 	mov	r10,2304
80004924:	ea 1a 00 3d 	orh	r10,0x3d
80004928:	91 09       	st.w	r8[0x0],r9
8000492a:	f1 67 00 08 	st.b	r8[8],r7
8000492e:	14 09       	add	r9,r10
80004930:	30 35       	mov	r5,3
80004932:	91 19       	st.w	r8[0x4],r9
80004934:	e0 68 0b 44 	mov	r8,2884
80004938:	11 88       	ld.ub	r8,r8[0x0]
8000493a:	58 88       	cp.w	r8,8
8000493c:	e0 8b 01 ee 	brhi	80004d18 <main+0x4a8>
80004940:	fe c9 e9 60 	sub	r9,pc,-5792
80004944:	f2 08 03 2f 	ld.w	pc,r9[r8<<0x2]
80004948:	33 ec       	mov	r12,62
8000494a:	fe b0 f3 7a 	rcall	8000303e <gpio_get_pin_value>
8000494e:	18 97       	mov	r7,r12
80004950:	e0 81 01 e4 	brne	80004d18 <main+0x4a8>
80004954:	37 cc       	mov	r12,124
80004956:	fe b0 f3 89 	rcall	80003068 <gpio_set_pin_low>
8000495a:	fe cc e8 6a 	sub	r12,pc,-6038
8000495e:	fe b0 ed bf 	rcall	800024dc <print_ecdbg>
80004962:	0e 9c       	mov	r12,r7
80004964:	c9 ce       	rcall	8000469c <display_text>
80004966:	e0 69 0b 44 	mov	r9,2884
8000496a:	30 18       	mov	r8,1
8000496c:	b2 88       	st.b	r9[0x0],r8
8000496e:	34 09       	mov	r9,64
80004970:	b2 88       	st.b	r9[0x0],r8
80004972:	e0 8f 01 d3 	bral	80004d18 <main+0x4a8>
80004976:	33 fc       	mov	r12,63
80004978:	fe b0 f3 63 	rcall	8000303e <gpio_get_pin_value>
8000497c:	e0 80 01 ce 	breq	80004d18 <main+0x4a8>
80004980:	fe cc e8 78 	sub	r12,pc,-6024
80004984:	fe b0 ed ac 	rcall	800024dc <print_ecdbg>
80004988:	30 29       	mov	r9,2
8000498a:	e0 8f 01 c4 	bral	80004d12 <main+0x4a2>
8000498e:	d7 03       	nop
80004990:	33 fc       	mov	r12,63
80004992:	fe b0 f3 56 	rcall	8000303e <gpio_get_pin_value>
80004996:	e0 81 01 c1 	brne	80004d18 <main+0x4a8>
8000499a:	fe cc e8 6e 	sub	r12,pc,-6034
8000499e:	fe b0 ed 9f 	rcall	800024dc <print_ecdbg>
800049a2:	e0 68 0b 44 	mov	r8,2884
800049a6:	b0 85       	st.b	r8[0x0],r5
800049a8:	e0 8f 01 b8 	bral	80004d18 <main+0x4a8>
800049ac:	fe b0 f8 e0 	rcall	80003b6c <check_led_brd_side_lifetimes>
800049b0:	fe b0 fd ae 	rcall	8000450c <check_shelves_for_devices>
800049b4:	fe b0 fa 66 	rcall	80003e80 <set_shelves_active_inactive>
800049b8:	e0 68 0b 46 	mov	r8,2886
800049bc:	30 09       	mov	r9,0
800049be:	11 8a       	ld.ub	r10,r8[0x0]
800049c0:	e0 68 0b 44 	mov	r8,2884
800049c4:	f2 0a 18 00 	cp.b	r10,r9
800049c8:	c2 f0       	breq	80004a26 <main+0x1b6>
800049ca:	30 49       	mov	r9,4
800049cc:	fe cc e8 78 	sub	r12,pc,-6024
800049d0:	b0 89       	st.b	r8[0x0],r9
800049d2:	fe b0 ed 85 	rcall	800024dc <print_ecdbg>
800049d6:	30 9c       	mov	r12,9
800049d8:	c6 2e       	rcall	8000469c <display_text>
800049da:	e1 b8 00 42 	mfsr	r8,0x108
800049de:	e0 6a 09 00 	mov	r10,2304
800049e2:	ea 1a 00 3d 	orh	r10,0x3d
800049e6:	f0 0a 00 0a 	add	r10,r8,r10
800049ea:	e1 b9 00 42 	mfsr	r9,0x108
800049ee:	14 38       	cp.w	r8,r10
800049f0:	e0 88 00 05 	brls	800049fa <main+0x18a>
800049f4:	10 39       	cp.w	r9,r8
800049f6:	cf a2       	brcc	800049ea <main+0x17a>
800049f8:	c0 48       	rjmp	80004a00 <main+0x190>
800049fa:	10 39       	cp.w	r9,r8
800049fc:	e0 83 01 e2 	brlo	80004dc0 <main+0x550>
80004a00:	14 39       	cp.w	r9,r10
80004a02:	e0 8b 01 df 	brhi	80004dc0 <main+0x550>
80004a06:	cf 2b       	rjmp	800049ea <main+0x17a>
80004a08:	e1 b9 00 42 	mfsr	r9,0x108
80004a0c:	14 38       	cp.w	r8,r10
80004a0e:	e0 88 00 05 	brls	80004a18 <main+0x1a8>
80004a12:	10 39       	cp.w	r9,r8
80004a14:	cf a2       	brcc	80004a08 <main+0x198>
80004a16:	c0 48       	rjmp	80004a1e <main+0x1ae>
80004a18:	10 39       	cp.w	r9,r8
80004a1a:	e0 83 01 7f 	brlo	80004d18 <main+0x4a8>
80004a1e:	14 39       	cp.w	r9,r10
80004a20:	e0 8b 01 7c 	brhi	80004d18 <main+0x4a8>
80004a24:	cf 2b       	rjmp	80004a08 <main+0x198>
80004a26:	30 69       	mov	r9,6
80004a28:	fe cc e8 c0 	sub	r12,pc,-5952
80004a2c:	b0 89       	st.b	r8[0x0],r9
80004a2e:	fe b0 ed 57 	rcall	800024dc <print_ecdbg>
80004a32:	30 0c       	mov	r12,0
80004a34:	c3 4e       	rcall	8000469c <display_text>
80004a36:	e0 8f 01 71 	bral	80004d18 <main+0x4a8>
80004a3a:	d7 03       	nop
80004a3c:	e0 69 02 ac 	mov	r9,684
80004a40:	30 0a       	mov	r10,0
80004a42:	12 91       	mov	r1,r9
80004a44:	3f f8       	mov	r8,-1
80004a46:	b2 88       	st.b	r9[0x0],r8
80004a48:	e0 69 03 54 	mov	r9,852
80004a4c:	14 97       	mov	r7,r10
80004a4e:	93 0a       	st.w	r9[0x0],r10
80004a50:	12 92       	mov	r2,r9
80004a52:	e0 66 03 36 	mov	r6,822
80004a56:	14 99       	mov	r9,r10
80004a58:	e0 63 0b 1c 	mov	r3,2844
80004a5c:	e0 64 02 f0 	mov	r4,752
80004a60:	e0 6a 03 5c 	mov	r10,860
80004a64:	0d 8b       	ld.ub	r11,r6[0x0]
80004a66:	f2 0b 18 00 	cp.b	r11,r9
80004a6a:	c3 51       	brne	80004ad4 <main+0x264>
80004a6c:	0d ac       	ld.ub	r12,r6[0x2]
80004a6e:	f8 00 15 03 	lsl	r0,r12,0x3
80004a72:	e0 0c 01 0c 	sub	r12,r0,r12
80004a76:	e8 0c 00 1c 	add	r12,r4,r12<<0x1
80004a7a:	f9 3c 00 0a 	ld.ub	r12,r12[10]
80004a7e:	f8 0c 00 2c 	add	r12,r12,r12<<0x2
80004a82:	e6 0c 07 0c 	ld.ub	r12,r3[r12]
80004a86:	0d 9b       	ld.ub	r11,r6[0x1]
80004a88:	f6 00 15 03 	lsl	r0,r11,0x3
80004a8c:	e0 0b 01 0b 	sub	r11,r0,r11
80004a90:	e8 0b 00 1b 	add	r11,r4,r11<<0x1
80004a94:	f7 3b 00 0b 	ld.ub	r11,r11[11]
80004a98:	f6 0b 00 2b 	add	r11,r11,r11<<0x2
80004a9c:	e6 0b 07 0b 	ld.ub	r11,r3[r11]
80004aa0:	f6 0c 18 00 	cp.b	r12,r11
80004aa4:	f8 0b 17 20 	movhs	r11,r12
80004aa8:	64 0c       	ld.w	r12,r2[0x0]
80004aaa:	5c 5b       	castu.b	r11
80004aac:	95 0b       	st.w	r10[0x0],r11
80004aae:	18 3b       	cp.w	r11,r12
80004ab0:	e5 fb ba 00 	st.whi	r2[0x0],r11
80004ab4:	50 1a       	stdsp	sp[0x4],r10
80004ab6:	30 1b       	mov	r11,1
80004ab8:	50 29       	stdsp	sp[0x8],r9
80004aba:	50 08       	stdsp	sp[0x0],r8
80004abc:	0e 9c       	mov	r12,r7
80004abe:	fe b0 f7 43 	rcall	80003944 <led_shelf>
80004ac2:	0e 90       	mov	r0,r7
80004ac4:	03 8b       	ld.ub	r11,r1[0x0]
80004ac6:	40 08       	lddsp	r8,sp[0x0]
80004ac8:	40 1a       	lddsp	r10,sp[0x4]
80004aca:	40 29       	lddsp	r9,sp[0x8]
80004acc:	f0 0b 18 00 	cp.b	r11,r8
80004ad0:	e3 f0 0e 00 	st.beq	r1[0x0],r0
80004ad4:	2f f7       	sub	r7,-1
80004ad6:	2f c6       	sub	r6,-4
80004ad8:	58 47       	cp.w	r7,4
80004ada:	cc 51       	brne	80004a64 <main+0x1f4>
80004adc:	e0 69 02 dc 	mov	r9,732
80004ae0:	e0 68 90 00 	mov	r8,36864
80004ae4:	ea 18 03 d0 	orh	r8,0x3d0
80004ae8:	93 08       	st.w	r9[0x0],r8
80004aea:	e1 b9 00 42 	mfsr	r9,0x108
80004aee:	f2 08 00 0a 	add	r10,r9,r8
80004af2:	e0 68 0b 04 	mov	r8,2820
80004af6:	e0 6b 38 00 	mov	r11,14336
80004afa:	ea 1b 1c 9c 	orh	r11,0x1c9c
80004afe:	91 09       	st.w	r8[0x0],r9
80004b00:	91 1a       	st.w	r8[0x4],r10
80004b02:	30 09       	mov	r9,0
80004b04:	f1 69 00 08 	st.b	r8[8],r9
80004b08:	e0 68 03 54 	mov	r8,852
80004b0c:	70 0c       	ld.w	r12,r8[0x0]
80004b0e:	b7 3c       	mul	r12,r11
80004b10:	e1 ba 00 42 	mfsr	r10,0x108
80004b14:	e0 68 03 48 	mov	r8,840
80004b18:	f4 0c 00 0c 	add	r12,r10,r12
80004b1c:	f1 69 00 08 	st.b	r8[8],r9
80004b20:	91 1c       	st.w	r8[0x4],r12
80004b22:	91 0a       	st.w	r8[0x0],r10
80004b24:	e1 ba 00 42 	mfsr	r10,0x108
80004b28:	e0 68 0b 48 	mov	r8,2888
80004b2c:	f4 0b 00 0b 	add	r11,r10,r11
80004b30:	f1 69 00 08 	st.b	r8[8],r9
80004b34:	91 1b       	st.w	r8[0x4],r11
80004b36:	91 0a       	st.w	r8[0x0],r10
80004b38:	30 9c       	mov	r12,9
80004b3a:	fe b0 fd b1 	rcall	8000469c <display_text>
80004b3e:	e1 b8 00 42 	mfsr	r8,0x108
80004b42:	e0 6a 09 00 	mov	r10,2304
80004b46:	ea 1a 00 3d 	orh	r10,0x3d
80004b4a:	f0 0a 00 0a 	add	r10,r8,r10
80004b4e:	e1 b9 00 42 	mfsr	r9,0x108
80004b52:	14 38       	cp.w	r8,r10
80004b54:	e0 88 00 05 	brls	80004b5e <main+0x2ee>
80004b58:	10 39       	cp.w	r9,r8
80004b5a:	cf a2       	brcc	80004b4e <main+0x2de>
80004b5c:	c0 48       	rjmp	80004b64 <main+0x2f4>
80004b5e:	10 39       	cp.w	r9,r8
80004b60:	e0 83 01 3d 	brlo	80004dda <main+0x56a>
80004b64:	14 39       	cp.w	r9,r10
80004b66:	e0 8b 01 3a 	brhi	80004dda <main+0x56a>
80004b6a:	cf 2b       	rjmp	80004b4e <main+0x2de>
80004b6c:	e1 b8 00 42 	mfsr	r8,0x108
80004b70:	e0 6a 0b 04 	mov	r10,2820
80004b74:	30 2b       	mov	r11,2
80004b76:	f5 39 00 08 	ld.ub	r9,r10[8]
80004b7a:	f6 09 18 00 	cp.b	r9,r11
80004b7e:	c4 00       	breq	80004bfe <main+0x38e>
80004b80:	30 1b       	mov	r11,1
80004b82:	f6 09 18 00 	cp.b	r9,r11
80004b86:	e0 80 01 2c 	breq	80004dde <main+0x56e>
80004b8a:	74 19       	ld.w	r9,r10[0x4]
80004b8c:	74 0a       	ld.w	r10,r10[0x0]
80004b8e:	12 3a       	cp.w	r10,r9
80004b90:	e0 88 00 05 	brls	80004b9a <main+0x32a>
80004b94:	14 38       	cp.w	r8,r10
80004b96:	c3 42       	brcc	80004bfe <main+0x38e>
80004b98:	c0 48       	rjmp	80004ba0 <main+0x330>
80004b9a:	14 38       	cp.w	r8,r10
80004b9c:	e0 83 01 21 	brlo	80004dde <main+0x56e>
80004ba0:	12 38       	cp.w	r8,r9
80004ba2:	e0 88 00 2e 	brls	80004bfe <main+0x38e>
80004ba6:	c1 c9       	rjmp	80004dde <main+0x56e>
80004ba8:	30 5c       	mov	r12,5
80004baa:	c0 68       	rjmp	80004bb6 <main+0x346>
80004bac:	30 6c       	mov	r12,6
80004bae:	c0 48       	rjmp	80004bb6 <main+0x346>
80004bb0:	30 7c       	mov	r12,7
80004bb2:	c0 28       	rjmp	80004bb6 <main+0x346>
80004bb4:	30 8c       	mov	r12,8
80004bb6:	fe b0 fd 73 	rcall	8000469c <display_text>
80004bba:	e0 68 02 ac 	mov	r8,684
80004bbe:	e0 6a 03 36 	mov	r10,822
80004bc2:	11 88       	ld.ub	r8,r8[0x0]
80004bc4:	30 09       	mov	r9,0
80004bc6:	2f f8       	sub	r8,-1
80004bc8:	5c 58       	castu.b	r8
80004bca:	f0 05 18 00 	cp.b	r5,r8
80004bce:	f9 b8 03 00 	movlo	r8,0
80004bd2:	f4 08 07 2b 	ld.ub	r11,r10[r8<<0x2]
80004bd6:	f2 0b 18 00 	cp.b	r11,r9
80004bda:	cf 60       	breq	80004bc6 <main+0x356>
80004bdc:	e0 69 02 ac 	mov	r9,684
80004be0:	b2 88       	st.b	r9[0x0],r8
80004be2:	e0 68 02 dc 	mov	r8,732
80004be6:	70 0a       	ld.w	r10,r8[0x0]
80004be8:	e1 b9 00 42 	mfsr	r9,0x108
80004bec:	e0 68 0b 04 	mov	r8,2820
80004bf0:	f2 0a 00 0a 	add	r10,r9,r10
80004bf4:	30 0b       	mov	r11,0
80004bf6:	91 1a       	st.w	r8[0x4],r10
80004bf8:	f1 6b 00 08 	st.b	r8[8],r11
80004bfc:	91 09       	st.w	r8[0x0],r9
80004bfe:	e1 b8 00 42 	mfsr	r8,0x108
80004c02:	e0 6a 0b 48 	mov	r10,2888
80004c06:	30 2b       	mov	r11,2
80004c08:	f5 39 00 08 	ld.ub	r9,r10[8]
80004c0c:	f6 09 18 00 	cp.b	r9,r11
80004c10:	c1 40       	breq	80004c38 <main+0x3c8>
80004c12:	30 1b       	mov	r11,1
80004c14:	f6 09 18 00 	cp.b	r9,r11
80004c18:	e0 80 00 fb 	breq	80004e0e <main+0x59e>
80004c1c:	74 19       	ld.w	r9,r10[0x4]
80004c1e:	74 0a       	ld.w	r10,r10[0x0]
80004c20:	12 3a       	cp.w	r10,r9
80004c22:	e0 88 00 05 	brls	80004c2c <main+0x3bc>
80004c26:	14 38       	cp.w	r8,r10
80004c28:	c0 82       	brcc	80004c38 <main+0x3c8>
80004c2a:	c0 48       	rjmp	80004c32 <main+0x3c2>
80004c2c:	14 38       	cp.w	r8,r10
80004c2e:	e0 83 00 f0 	brlo	80004e0e <main+0x59e>
80004c32:	12 38       	cp.w	r8,r9
80004c34:	e0 8b 00 ed 	brhi	80004e0e <main+0x59e>
80004c38:	e1 b8 00 42 	mfsr	r8,0x108
80004c3c:	e0 69 03 48 	mov	r9,840
80004c40:	30 2b       	mov	r11,2
80004c42:	f3 3a 00 08 	ld.ub	r10,r9[8]
80004c46:	f6 0a 18 00 	cp.b	r10,r11
80004c4a:	c6 70       	breq	80004d18 <main+0x4a8>
80004c4c:	30 1c       	mov	r12,1
80004c4e:	f8 0a 18 00 	cp.b	r10,r12
80004c52:	e0 80 00 f1 	breq	80004e34 <main+0x5c4>
80004c56:	72 0b       	ld.w	r11,r9[0x0]
80004c58:	72 1a       	ld.w	r10,r9[0x4]
80004c5a:	14 3b       	cp.w	r11,r10
80004c5c:	e0 88 00 0a 	brls	80004c70 <main+0x400>
80004c60:	16 38       	cp.w	r8,r11
80004c62:	c5 b2       	brcc	80004d18 <main+0x4a8>
80004c64:	14 38       	cp.w	r8,r10
80004c66:	e0 88 00 59 	brls	80004d18 <main+0x4a8>
80004c6a:	f3 6c 00 08 	st.b	r9[8],r12
80004c6e:	ce 38       	rjmp	80004e34 <main+0x5c4>
80004c70:	16 38       	cp.w	r8,r11
80004c72:	c0 43       	brcs	80004c7a <main+0x40a>
80004c74:	14 38       	cp.w	r8,r10
80004c76:	e0 88 00 51 	brls	80004d18 <main+0x4a8>
80004c7a:	30 19       	mov	r9,1
80004c7c:	e0 68 03 48 	mov	r8,840
80004c80:	f1 69 00 08 	st.b	r8[8],r9
80004c84:	cd 88       	rjmp	80004e34 <main+0x5c4>
80004c86:	d7 03       	nop
80004c88:	30 1c       	mov	r12,1
80004c8a:	fe b0 fd 09 	rcall	8000469c <display_text>
80004c8e:	30 79       	mov	r9,7
80004c90:	e0 68 0b 44 	mov	r8,2884
80004c94:	b0 89       	st.b	r8[0x0],r9
80004c96:	e1 b9 00 42 	mfsr	r9,0x108
80004c9a:	e0 68 0b 10 	mov	r8,2832
80004c9e:	e0 6a c0 00 	mov	r10,49152
80004ca2:	ea 1a 5a 0b 	orh	r10,0x5a0b
80004ca6:	91 09       	st.w	r8[0x0],r9
80004ca8:	14 09       	add	r9,r10
80004caa:	91 19       	st.w	r8[0x4],r9
80004cac:	30 09       	mov	r9,0
80004cae:	f1 69 00 08 	st.b	r8[8],r9
80004cb2:	c3 38       	rjmp	80004d18 <main+0x4a8>
80004cb4:	e1 b8 00 42 	mfsr	r8,0x108
80004cb8:	e0 6a 0b 10 	mov	r10,2832
80004cbc:	30 2b       	mov	r11,2
80004cbe:	f5 39 00 08 	ld.ub	r9,r10[8]
80004cc2:	f6 09 18 00 	cp.b	r9,r11
80004cc6:	c2 90       	breq	80004d18 <main+0x4a8>
80004cc8:	30 1b       	mov	r11,1
80004cca:	f6 09 18 00 	cp.b	r9,r11
80004cce:	e0 80 00 cb 	breq	80004e64 <main+0x5f4>
80004cd2:	74 19       	ld.w	r9,r10[0x4]
80004cd4:	74 0a       	ld.w	r10,r10[0x0]
80004cd6:	12 3a       	cp.w	r10,r9
80004cd8:	e0 88 00 05 	brls	80004ce2 <main+0x472>
80004cdc:	14 38       	cp.w	r8,r10
80004cde:	c1 d2       	brcc	80004d18 <main+0x4a8>
80004ce0:	c0 48       	rjmp	80004ce8 <main+0x478>
80004ce2:	14 38       	cp.w	r8,r10
80004ce4:	e0 83 00 c0 	brlo	80004e64 <main+0x5f4>
80004ce8:	12 38       	cp.w	r8,r9
80004cea:	e0 88 00 17 	brls	80004d18 <main+0x4a8>
80004cee:	cb b8       	rjmp	80004e64 <main+0x5f4>
80004cf0:	30 0b       	mov	r11,0
80004cf2:	16 9c       	mov	r12,r11
80004cf4:	fe b0 f6 28 	rcall	80003944 <led_shelf>
80004cf8:	30 0b       	mov	r11,0
80004cfa:	30 1c       	mov	r12,1
80004cfc:	fe b0 f6 24 	rcall	80003944 <led_shelf>
80004d00:	30 0b       	mov	r11,0
80004d02:	30 2c       	mov	r12,2
80004d04:	fe b0 f6 20 	rcall	80003944 <led_shelf>
80004d08:	30 0b       	mov	r11,0
80004d0a:	30 3c       	mov	r12,3
80004d0c:	fe b0 f6 1c 	rcall	80003944 <led_shelf>
80004d10:	30 09       	mov	r9,0
80004d12:	e0 68 0b 44 	mov	r8,2884
80004d16:	b0 89       	st.b	r8[0x0],r9
80004d18:	33 ec       	mov	r12,62
80004d1a:	fe b0 f1 92 	rcall	8000303e <gpio_get_pin_value>
80004d1e:	c3 30       	breq	80004d84 <main+0x514>
80004d20:	34 08       	mov	r8,64
80004d22:	11 89       	ld.ub	r9,r8[0x0]
80004d24:	30 08       	mov	r8,0
80004d26:	f0 09 18 00 	cp.b	r9,r8
80004d2a:	c2 d0       	breq	80004d84 <main+0x514>
80004d2c:	fe b0 f9 5c 	rcall	80003fe4 <door_latch_open_kill_all_shelves>
80004d30:	30 9c       	mov	r12,9
80004d32:	fe b0 fc b5 	rcall	8000469c <display_text>
80004d36:	e1 b8 00 42 	mfsr	r8,0x108
80004d3a:	e0 6a 09 00 	mov	r10,2304
80004d3e:	ea 1a 00 3d 	orh	r10,0x3d
80004d42:	f0 0a 00 0a 	add	r10,r8,r10
80004d46:	e1 b9 00 42 	mfsr	r9,0x108
80004d4a:	14 38       	cp.w	r8,r10
80004d4c:	e0 88 00 05 	brls	80004d56 <main+0x4e6>
80004d50:	10 39       	cp.w	r9,r8
80004d52:	cf a2       	brcc	80004d46 <main+0x4d6>
80004d54:	c0 48       	rjmp	80004d5c <main+0x4ec>
80004d56:	10 39       	cp.w	r9,r8
80004d58:	e0 83 00 93 	brlo	80004e7e <main+0x60e>
80004d5c:	14 39       	cp.w	r9,r10
80004d5e:	e0 8b 00 90 	brhi	80004e7e <main+0x60e>
80004d62:	cf 2b       	rjmp	80004d46 <main+0x4d6>
80004d64:	30 3c       	mov	r12,3
80004d66:	c0 28       	rjmp	80004d6a <main+0x4fa>
80004d68:	30 1c       	mov	r12,1
80004d6a:	fe b0 fc 99 	rcall	8000469c <display_text>
80004d6e:	30 89       	mov	r9,8
80004d70:	e0 68 0b 44 	mov	r8,2884
80004d74:	fe cc eb c4 	sub	r12,pc,-5180
80004d78:	b0 89       	st.b	r8[0x0],r9
80004d7a:	fe b0 eb b1 	rcall	800024dc <print_ecdbg>
80004d7e:	30 09       	mov	r9,0
80004d80:	34 08       	mov	r8,64
80004d82:	b0 89       	st.b	r8[0x0],r9
80004d84:	e1 b8 00 42 	mfsr	r8,0x108
80004d88:	e0 6a 03 74 	mov	r10,884
80004d8c:	30 2b       	mov	r11,2
80004d8e:	f5 39 00 08 	ld.ub	r9,r10[8]
80004d92:	f6 09 18 00 	cp.b	r9,r11
80004d96:	fe 90 fd cf 	breq	80004934 <main+0xc4>
80004d9a:	30 1b       	mov	r11,1
80004d9c:	f6 09 18 00 	cp.b	r9,r11
80004da0:	c7 80       	breq	80004e90 <main+0x620>
80004da2:	74 19       	ld.w	r9,r10[0x4]
80004da4:	74 0a       	ld.w	r10,r10[0x0]
80004da6:	12 3a       	cp.w	r10,r9
80004da8:	e0 88 00 06 	brls	80004db4 <main+0x544>
80004dac:	14 38       	cp.w	r8,r10
80004dae:	fe 92 fd c3 	brhs	80004934 <main+0xc4>
80004db2:	c0 38       	rjmp	80004db8 <main+0x548>
80004db4:	14 38       	cp.w	r8,r10
80004db6:	c6 d3       	brcs	80004e90 <main+0x620>
80004db8:	12 38       	cp.w	r8,r9
80004dba:	fe 98 fd bd 	brls	80004934 <main+0xc4>
80004dbe:	c6 98       	rjmp	80004e90 <main+0x620>
80004dc0:	30 2c       	mov	r12,2
80004dc2:	fe b0 fc 6d 	rcall	8000469c <display_text>
80004dc6:	e1 b8 00 42 	mfsr	r8,0x108
80004dca:	e0 6a 36 00 	mov	r10,13824
80004dce:	ea 1a 01 6e 	orh	r10,0x16e
80004dd2:	f0 0a 00 0a 	add	r10,r8,r10
80004dd6:	fe 9f fe 19 	bral	80004a08 <main+0x198>
80004dda:	30 59       	mov	r9,5
80004ddc:	c9 bb       	rjmp	80004d12 <main+0x4a2>
80004dde:	e0 68 0b 04 	mov	r8,2820
80004de2:	30 29       	mov	r9,2
80004de4:	f1 69 00 08 	st.b	r8[8],r9
80004de8:	30 1a       	mov	r10,1
80004dea:	e0 68 02 ac 	mov	r8,684
80004dee:	11 88       	ld.ub	r8,r8[0x0]
80004df0:	f4 08 18 00 	cp.b	r8,r10
80004df4:	fe 90 fe dc 	breq	80004bac <main+0x33c>
80004df8:	fe 93 fe d8 	brlo	80004ba8 <main+0x338>
80004dfc:	f2 08 18 00 	cp.b	r8,r9
80004e00:	fe 90 fe d8 	breq	80004bb0 <main+0x340>
80004e04:	ea 08 18 00 	cp.b	r8,r5
80004e08:	fe 91 fe d9 	brne	80004bba <main+0x34a>
80004e0c:	cd 4a       	rjmp	80004bb4 <main+0x344>
80004e0e:	30 28       	mov	r8,2
80004e10:	e0 67 0b 48 	mov	r7,2888
80004e14:	ef 68 00 08 	st.b	r7[8],r8
80004e18:	fe b0 f9 10 	rcall	80004038 <increment_ledBoard_usage_min>
80004e1c:	e1 b8 00 42 	mfsr	r8,0x108
80004e20:	e0 6a ea 60 	mov	r10,60000
80004e24:	8f 08       	st.w	r7[0x0],r8
80004e26:	f0 0a 00 09 	add	r9,r8,r10
80004e2a:	30 08       	mov	r8,0
80004e2c:	8f 19       	st.w	r7[0x4],r9
80004e2e:	ef 68 00 08 	st.b	r7[8],r8
80004e32:	c0 3b       	rjmp	80004c38 <main+0x3c8>
80004e34:	30 0b       	mov	r11,0
80004e36:	16 9c       	mov	r12,r11
80004e38:	fe b0 f5 86 	rcall	80003944 <led_shelf>
80004e3c:	30 0b       	mov	r11,0
80004e3e:	30 1c       	mov	r12,1
80004e40:	fe b0 f5 82 	rcall	80003944 <led_shelf>
80004e44:	30 0b       	mov	r11,0
80004e46:	30 2c       	mov	r12,2
80004e48:	fe b0 f5 7e 	rcall	80003944 <led_shelf>
80004e4c:	30 3c       	mov	r12,3
80004e4e:	30 0b       	mov	r11,0
80004e50:	fe b0 f5 7a 	rcall	80003944 <led_shelf>
80004e54:	30 29       	mov	r9,2
80004e56:	e0 68 03 48 	mov	r8,840
80004e5a:	fe cc ec 76 	sub	r12,pc,-5002
80004e5e:	f1 69 00 08 	st.b	r8[8],r9
80004e62:	c0 b8       	rjmp	80004e78 <main+0x608>
80004e64:	e0 68 0b 10 	mov	r8,2832
80004e68:	30 29       	mov	r9,2
80004e6a:	fe cc ed 16 	sub	r12,pc,-4842
80004e6e:	f1 69 00 08 	st.b	r8[8],r9
80004e72:	e0 68 0b 44 	mov	r8,2884
80004e76:	b0 85       	st.b	r8[0x0],r5
80004e78:	fe b0 eb 32 	rcall	800024dc <print_ecdbg>
80004e7c:	c4 eb       	rjmp	80004d18 <main+0x4a8>
80004e7e:	e0 68 0b 44 	mov	r8,2884
80004e82:	11 89       	ld.ub	r9,r8[0x0]
80004e84:	30 58       	mov	r8,5
80004e86:	f0 09 18 00 	cp.b	r9,r8
80004e8a:	fe 91 ff 6f 	brne	80004d68 <main+0x4f8>
80004e8e:	c6 bb       	rjmp	80004d64 <main+0x4f4>
80004e90:	e0 68 03 74 	mov	r8,884
80004e94:	e1 b9 00 42 	mfsr	r9,0x108
80004e98:	e0 6a 09 00 	mov	r10,2304
80004e9c:	ea 1a 00 3d 	orh	r10,0x3d
80004ea0:	91 09       	st.w	r8[0x0],r9
80004ea2:	14 09       	add	r9,r10
80004ea4:	91 19       	st.w	r8[0x4],r9
80004ea6:	30 09       	mov	r9,0
80004ea8:	37 cc       	mov	r12,124
80004eaa:	f1 69 00 08 	st.b	r8[8],r9
80004eae:	fe b0 f0 e7 	rcall	8000307c <gpio_toggle_pin>
80004eb2:	fe 9f fd 41 	bral	80004934 <main+0xc4>
80004eb6:	d7 03       	nop

80004eb8 <__avr32_f64_mul>:
80004eb8:	f5 eb 10 1c 	or	r12,r10,r11<<0x1
80004ebc:	e0 80 00 dc 	breq	80005074 <__avr32_f64_mul_op1_zero>
80004ec0:	d4 21       	pushm	r4-r7,lr
80004ec2:	f7 e9 20 0e 	eor	lr,r11,r9
80004ec6:	ef db c2 8b 	bfextu	r7,r11,0x14,0xb
80004eca:	30 15       	mov	r5,1
80004ecc:	c4 30       	breq	80004f52 <__avr32_f64_mul_op1_subnormal>
80004ece:	ab 6b       	lsl	r11,0xa
80004ed0:	f7 ea 13 6b 	or	r11,r11,r10>>0x16
80004ed4:	ab 6a       	lsl	r10,0xa
80004ed6:	f7 d5 d3 c2 	bfins	r11,r5,0x1e,0x2
80004eda:	ed d9 c2 8b 	bfextu	r6,r9,0x14,0xb
80004ede:	c5 c0       	breq	80004f96 <__avr32_f64_mul_op2_subnormal>
80004ee0:	a1 78       	lsl	r8,0x1
80004ee2:	5c f9       	rol	r9
80004ee4:	f3 d5 d2 ab 	bfins	r9,r5,0x15,0xb
80004ee8:	e0 47 07 ff 	cp.w	r7,2047
80004eec:	c7 70       	breq	80004fda <__avr32_f64_mul_op_nan_or_inf>
80004eee:	e0 46 07 ff 	cp.w	r6,2047
80004ef2:	c7 40       	breq	80004fda <__avr32_f64_mul_op_nan_or_inf>
80004ef4:	ee 06 00 0c 	add	r12,r7,r6
80004ef8:	e0 2c 03 fe 	sub	r12,1022
80004efc:	f6 08 06 44 	mulu.d	r4,r11,r8
80004f00:	f4 09 07 44 	macu.d	r4,r10,r9
80004f04:	f4 08 06 46 	mulu.d	r6,r10,r8
80004f08:	f6 09 06 4a 	mulu.d	r10,r11,r9
80004f0c:	08 07       	add	r7,r4
80004f0e:	f4 05 00 4a 	adc	r10,r10,r5
80004f12:	5c 0b       	acr	r11
80004f14:	ed bb 00 14 	bld	r11,0x14
80004f18:	c0 50       	breq	80004f22 <__avr32_f64_mul+0x6a>
80004f1a:	a1 77       	lsl	r7,0x1
80004f1c:	5c fa       	rol	r10
80004f1e:	5c fb       	rol	r11
80004f20:	20 1c       	sub	r12,1
80004f22:	58 0c       	cp.w	r12,0
80004f24:	e0 8a 00 6f 	brle	80005002 <__avr32_f64_mul_res_subnormal>
80004f28:	e0 4c 07 ff 	cp.w	r12,2047
80004f2c:	e0 84 00 9c 	brge	80005064 <__avr32_f64_mul_res_inf>
80004f30:	f7 dc d2 8b 	bfins	r11,r12,0x14,0xb
80004f34:	ed ea 11 f6 	or	r6,r6,r10<<0x1f
80004f38:	ef e6 12 17 	or	r7,r7,r6>>0x1
80004f3c:	ee 17 80 00 	eorh	r7,0x8000
80004f40:	f1 b7 04 20 	satu	r7,0x1
80004f44:	0e 0a       	add	r10,r7
80004f46:	5c 0b       	acr	r11
80004f48:	ed be 00 1f 	bld	lr,0x1f
80004f4c:	ef bb 00 1f 	bst	r11,0x1f
80004f50:	d8 22       	popm	r4-r7,pc

80004f52 <__avr32_f64_mul_op1_subnormal>:
80004f52:	e4 1b 00 0f 	andh	r11,0xf
80004f56:	f4 0c 12 00 	clz	r12,r10
80004f5a:	f6 06 12 00 	clz	r6,r11
80004f5e:	f7 bc 03 e1 	sublo	r12,-31
80004f62:	f8 06 17 30 	movlo	r6,r12
80004f66:	f7 b6 02 01 	subhs	r6,1
80004f6a:	e0 46 00 20 	cp.w	r6,32
80004f6e:	c0 d4       	brge	80004f88 <__avr32_f64_mul_op1_subnormal+0x36>
80004f70:	ec 0c 11 20 	rsub	r12,r6,32
80004f74:	f6 06 09 4b 	lsl	r11,r11,r6
80004f78:	f4 0c 0a 4c 	lsr	r12,r10,r12
80004f7c:	18 4b       	or	r11,r12
80004f7e:	f4 06 09 4a 	lsl	r10,r10,r6
80004f82:	20 b6       	sub	r6,11
80004f84:	0c 17       	sub	r7,r6
80004f86:	ca ab       	rjmp	80004eda <__avr32_f64_mul+0x22>
80004f88:	f4 06 09 4b 	lsl	r11,r10,r6
80004f8c:	c6 40       	breq	80005054 <__avr32_f64_mul_res_zero>
80004f8e:	30 0a       	mov	r10,0
80004f90:	20 b6       	sub	r6,11
80004f92:	0c 17       	sub	r7,r6
80004f94:	ca 3b       	rjmp	80004eda <__avr32_f64_mul+0x22>

80004f96 <__avr32_f64_mul_op2_subnormal>:
80004f96:	e4 19 00 0f 	andh	r9,0xf
80004f9a:	f0 0c 12 00 	clz	r12,r8
80004f9e:	f2 05 12 00 	clz	r5,r9
80004fa2:	f7 bc 03 ea 	sublo	r12,-22
80004fa6:	f8 05 17 30 	movlo	r5,r12
80004faa:	f7 b5 02 0a 	subhs	r5,10
80004fae:	e0 45 00 20 	cp.w	r5,32
80004fb2:	c0 d4       	brge	80004fcc <__avr32_f64_mul_op2_subnormal+0x36>
80004fb4:	ea 0c 11 20 	rsub	r12,r5,32
80004fb8:	f2 05 09 49 	lsl	r9,r9,r5
80004fbc:	f0 0c 0a 4c 	lsr	r12,r8,r12
80004fc0:	18 49       	or	r9,r12
80004fc2:	f0 05 09 48 	lsl	r8,r8,r5
80004fc6:	20 25       	sub	r5,2
80004fc8:	0a 16       	sub	r6,r5
80004fca:	c8 fb       	rjmp	80004ee8 <__avr32_f64_mul+0x30>
80004fcc:	f0 05 09 49 	lsl	r9,r8,r5
80004fd0:	c4 20       	breq	80005054 <__avr32_f64_mul_res_zero>
80004fd2:	30 08       	mov	r8,0
80004fd4:	20 25       	sub	r5,2
80004fd6:	0a 16       	sub	r6,r5
80004fd8:	c8 8b       	rjmp	80004ee8 <__avr32_f64_mul+0x30>

80004fda <__avr32_f64_mul_op_nan_or_inf>:
80004fda:	e4 19 00 0f 	andh	r9,0xf
80004fde:	e4 1b 00 0f 	andh	r11,0xf
80004fe2:	14 4b       	or	r11,r10
80004fe4:	10 49       	or	r9,r8
80004fe6:	e0 47 07 ff 	cp.w	r7,2047
80004fea:	c0 91       	brne	80004ffc <__avr32_f64_mul_op1_not_naninf>
80004fec:	58 0b       	cp.w	r11,0
80004fee:	c3 81       	brne	8000505e <__avr32_f64_mul_res_nan>
80004ff0:	e0 46 07 ff 	cp.w	r6,2047
80004ff4:	c3 81       	brne	80005064 <__avr32_f64_mul_res_inf>
80004ff6:	58 09       	cp.w	r9,0
80004ff8:	c3 60       	breq	80005064 <__avr32_f64_mul_res_inf>
80004ffa:	c3 28       	rjmp	8000505e <__avr32_f64_mul_res_nan>

80004ffc <__avr32_f64_mul_op1_not_naninf>:
80004ffc:	58 09       	cp.w	r9,0
80004ffe:	c3 30       	breq	80005064 <__avr32_f64_mul_res_inf>
80005000:	c2 f8       	rjmp	8000505e <__avr32_f64_mul_res_nan>

80005002 <__avr32_f64_mul_res_subnormal>:
80005002:	5c 3c       	neg	r12
80005004:	2f fc       	sub	r12,-1
80005006:	f1 bc 04 c0 	satu	r12,0x6
8000500a:	e0 4c 00 20 	cp.w	r12,32
8000500e:	c1 14       	brge	80005030 <__avr32_f64_mul_res_subnormal+0x2e>
80005010:	f8 08 11 20 	rsub	r8,r12,32
80005014:	0e 46       	or	r6,r7
80005016:	ee 0c 0a 47 	lsr	r7,r7,r12
8000501a:	f4 08 09 49 	lsl	r9,r10,r8
8000501e:	12 47       	or	r7,r9
80005020:	f4 0c 0a 4a 	lsr	r10,r10,r12
80005024:	f6 08 09 49 	lsl	r9,r11,r8
80005028:	12 4a       	or	r10,r9
8000502a:	f6 0c 0a 4b 	lsr	r11,r11,r12
8000502e:	c8 3b       	rjmp	80004f34 <__avr32_f64_mul+0x7c>
80005030:	f8 08 11 20 	rsub	r8,r12,32
80005034:	f9 b9 00 00 	moveq	r9,0
80005038:	c0 30       	breq	8000503e <__avr32_f64_mul_res_subnormal+0x3c>
8000503a:	f6 08 09 49 	lsl	r9,r11,r8
8000503e:	0e 46       	or	r6,r7
80005040:	ed ea 10 16 	or	r6,r6,r10<<0x1
80005044:	f4 0c 0a 4a 	lsr	r10,r10,r12
80005048:	f3 ea 10 07 	or	r7,r9,r10
8000504c:	f6 0c 0a 4a 	lsr	r10,r11,r12
80005050:	30 0b       	mov	r11,0
80005052:	c7 1b       	rjmp	80004f34 <__avr32_f64_mul+0x7c>

80005054 <__avr32_f64_mul_res_zero>:
80005054:	1c 9b       	mov	r11,lr
80005056:	e6 1b 80 00 	andh	r11,0x8000,COH
8000505a:	30 0a       	mov	r10,0
8000505c:	d8 22       	popm	r4-r7,pc

8000505e <__avr32_f64_mul_res_nan>:
8000505e:	3f fb       	mov	r11,-1
80005060:	3f fa       	mov	r10,-1
80005062:	d8 22       	popm	r4-r7,pc

80005064 <__avr32_f64_mul_res_inf>:
80005064:	f0 6b 00 00 	mov	r11,-1048576
80005068:	ed be 00 1f 	bld	lr,0x1f
8000506c:	ef bb 00 1f 	bst	r11,0x1f
80005070:	30 0a       	mov	r10,0
80005072:	d8 22       	popm	r4-r7,pc

80005074 <__avr32_f64_mul_op1_zero>:
80005074:	f7 e9 20 0b 	eor	r11,r11,r9
80005078:	e6 1b 80 00 	andh	r11,0x8000,COH
8000507c:	f9 d9 c2 8b 	bfextu	r12,r9,0x14,0xb
80005080:	e0 4c 07 ff 	cp.w	r12,2047
80005084:	5e 1c       	retne	r12
80005086:	3f fa       	mov	r10,-1
80005088:	3f fb       	mov	r11,-1
8000508a:	5e fc       	retal	r12

8000508c <__avr32_f64_sub_from_add>:
8000508c:	ee 19 80 00 	eorh	r9,0x8000

80005090 <__avr32_f64_sub>:
80005090:	f7 e9 20 0c 	eor	r12,r11,r9
80005094:	e0 86 00 ca 	brmi	80005228 <__avr32_f64_add_from_sub>
80005098:	eb cd 40 e0 	pushm	r5-r7,lr
8000509c:	16 9c       	mov	r12,r11
8000509e:	e6 1c 80 00 	andh	r12,0x8000,COH
800050a2:	bf db       	cbr	r11,0x1f
800050a4:	bf d9       	cbr	r9,0x1f
800050a6:	10 3a       	cp.w	r10,r8
800050a8:	f2 0b 13 00 	cpc	r11,r9
800050ac:	c0 92       	brcc	800050be <__avr32_f64_sub+0x2e>
800050ae:	16 97       	mov	r7,r11
800050b0:	12 9b       	mov	r11,r9
800050b2:	0e 99       	mov	r9,r7
800050b4:	14 97       	mov	r7,r10
800050b6:	10 9a       	mov	r10,r8
800050b8:	0e 98       	mov	r8,r7
800050ba:	ee 1c 80 00 	eorh	r12,0x8000
800050be:	f6 07 16 14 	lsr	r7,r11,0x14
800050c2:	ab 7b       	lsl	r11,0xb
800050c4:	f7 ea 13 5b 	or	r11,r11,r10>>0x15
800050c8:	ab 7a       	lsl	r10,0xb
800050ca:	bf bb       	sbr	r11,0x1f
800050cc:	f2 06 16 14 	lsr	r6,r9,0x14
800050d0:	c4 40       	breq	80005158 <__avr32_f64_sub_opL_subnormal>
800050d2:	ab 79       	lsl	r9,0xb
800050d4:	f3 e8 13 59 	or	r9,r9,r8>>0x15
800050d8:	ab 78       	lsl	r8,0xb
800050da:	bf b9       	sbr	r9,0x1f

800050dc <__avr32_f64_sub_opL_subnormal_done>:
800050dc:	e0 47 07 ff 	cp.w	r7,2047
800050e0:	c4 f0       	breq	8000517e <__avr32_f64_sub_opH_nan_or_inf>
800050e2:	0e 26       	rsub	r6,r7
800050e4:	c1 20       	breq	80005108 <__avr32_f64_sub_shift_done>
800050e6:	ec 05 11 20 	rsub	r5,r6,32
800050ea:	e0 46 00 20 	cp.w	r6,32
800050ee:	c7 c2       	brcc	800051e6 <__avr32_f64_sub_longshift>
800050f0:	f0 05 09 4e 	lsl	lr,r8,r5
800050f4:	f2 05 09 45 	lsl	r5,r9,r5
800050f8:	f0 06 0a 48 	lsr	r8,r8,r6
800050fc:	f2 06 0a 49 	lsr	r9,r9,r6
80005100:	0a 48       	or	r8,r5
80005102:	58 0e       	cp.w	lr,0
80005104:	5f 1e       	srne	lr
80005106:	1c 48       	or	r8,lr

80005108 <__avr32_f64_sub_shift_done>:
80005108:	10 1a       	sub	r10,r8
8000510a:	f6 09 01 4b 	sbc	r11,r11,r9
8000510e:	f6 06 12 00 	clz	r6,r11
80005112:	c0 e0       	breq	8000512e <__avr32_f64_sub_longnormalize_done>
80005114:	c7 83       	brcs	80005204 <__avr32_f64_sub_longnormalize>
80005116:	ec 0e 11 20 	rsub	lr,r6,32
8000511a:	f6 06 09 4b 	lsl	r11,r11,r6
8000511e:	f4 0e 0a 4e 	lsr	lr,r10,lr
80005122:	1c 4b       	or	r11,lr
80005124:	f4 06 09 4a 	lsl	r10,r10,r6
80005128:	0c 17       	sub	r7,r6
8000512a:	e0 8a 00 39 	brle	8000519c <__avr32_f64_sub_subnormal_result>

8000512e <__avr32_f64_sub_longnormalize_done>:
8000512e:	f4 09 15 15 	lsl	r9,r10,0x15
80005132:	ab 9a       	lsr	r10,0xb
80005134:	f5 eb 11 5a 	or	r10,r10,r11<<0x15
80005138:	ab 9b       	lsr	r11,0xb
8000513a:	f7 d7 d2 8b 	bfins	r11,r7,0x14,0xb
8000513e:	18 4b       	or	r11,r12

80005140 <__avr32_f64_sub_round>:
80005140:	fc 17 80 00 	movh	r7,0x8000
80005144:	ed ba 00 00 	bld	r10,0x0
80005148:	f7 b7 01 ff 	subne	r7,-1
8000514c:	0e 39       	cp.w	r9,r7
8000514e:	5f 29       	srhs	r9
80005150:	12 0a       	add	r10,r9
80005152:	5c 0b       	acr	r11
80005154:	e3 cd 80 e0 	ldm	sp++,r5-r7,pc

80005158 <__avr32_f64_sub_opL_subnormal>:
80005158:	ab 79       	lsl	r9,0xb
8000515a:	f3 e8 13 59 	or	r9,r9,r8>>0x15
8000515e:	ab 78       	lsl	r8,0xb
80005160:	f3 e8 10 0e 	or	lr,r9,r8
80005164:	f9 b6 01 01 	movne	r6,1
80005168:	ee 0e 11 00 	rsub	lr,r7,0
8000516c:	f9 b7 00 01 	moveq	r7,1
80005170:	ef bb 00 1f 	bst	r11,0x1f
80005174:	f7 ea 10 0e 	or	lr,r11,r10
80005178:	f9 b7 00 00 	moveq	r7,0
8000517c:	cb 0b       	rjmp	800050dc <__avr32_f64_sub_opL_subnormal_done>

8000517e <__avr32_f64_sub_opH_nan_or_inf>:
8000517e:	bf db       	cbr	r11,0x1f
80005180:	f7 ea 10 0e 	or	lr,r11,r10
80005184:	c0 81       	brne	80005194 <__avr32_f64_sub_return_nan>
80005186:	e0 46 07 ff 	cp.w	r6,2047
8000518a:	c0 50       	breq	80005194 <__avr32_f64_sub_return_nan>
8000518c:	f9 e7 11 4b 	or	r11,r12,r7<<0x14
80005190:	e3 cd 80 e0 	ldm	sp++,r5-r7,pc

80005194 <__avr32_f64_sub_return_nan>:
80005194:	3f fa       	mov	r10,-1
80005196:	3f fb       	mov	r11,-1
80005198:	e3 cd 80 e0 	ldm	sp++,r5-r7,pc

8000519c <__avr32_f64_sub_subnormal_result>:
8000519c:	5c 37       	neg	r7
8000519e:	2f f7       	sub	r7,-1
800051a0:	f1 b7 04 c0 	satu	r7,0x6
800051a4:	e0 47 00 20 	cp.w	r7,32
800051a8:	c1 14       	brge	800051ca <__avr32_f64_sub_subnormal_result+0x2e>
800051aa:	ee 08 11 20 	rsub	r8,r7,32
800051ae:	f4 08 09 49 	lsl	r9,r10,r8
800051b2:	5f 16       	srne	r6
800051b4:	f4 07 0a 4a 	lsr	r10,r10,r7
800051b8:	0c 4a       	or	r10,r6
800051ba:	f6 08 09 49 	lsl	r9,r11,r8
800051be:	f5 e9 10 0a 	or	r10,r10,r9
800051c2:	f4 07 0a 4b 	lsr	r11,r10,r7
800051c6:	30 07       	mov	r7,0
800051c8:	cb 3b       	rjmp	8000512e <__avr32_f64_sub_longnormalize_done>
800051ca:	ee 08 11 40 	rsub	r8,r7,64
800051ce:	f6 08 09 49 	lsl	r9,r11,r8
800051d2:	14 49       	or	r9,r10
800051d4:	5f 16       	srne	r6
800051d6:	f6 07 0a 4a 	lsr	r10,r11,r7
800051da:	0c 4a       	or	r10,r6
800051dc:	30 0b       	mov	r11,0
800051de:	30 07       	mov	r7,0
800051e0:	ca 7b       	rjmp	8000512e <__avr32_f64_sub_longnormalize_done>
800051e2:	e3 cd 80 e0 	ldm	sp++,r5-r7,pc

800051e6 <__avr32_f64_sub_longshift>:
800051e6:	f1 b6 04 c0 	satu	r6,0x6
800051ea:	f0 0e 17 00 	moveq	lr,r8
800051ee:	c0 40       	breq	800051f6 <__avr32_f64_sub_longshift+0x10>
800051f0:	f2 05 09 4e 	lsl	lr,r9,r5
800051f4:	10 4e       	or	lr,r8
800051f6:	f2 06 0a 48 	lsr	r8,r9,r6
800051fa:	30 09       	mov	r9,0
800051fc:	58 0e       	cp.w	lr,0
800051fe:	5f 1e       	srne	lr
80005200:	1c 48       	or	r8,lr
80005202:	c8 3b       	rjmp	80005108 <__avr32_f64_sub_shift_done>

80005204 <__avr32_f64_sub_longnormalize>:
80005204:	f4 06 12 00 	clz	r6,r10
80005208:	f9 b7 03 00 	movlo	r7,0
8000520c:	f9 b6 03 00 	movlo	r6,0
80005210:	f9 bc 03 00 	movlo	r12,0
80005214:	f7 b6 02 e0 	subhs	r6,-32
80005218:	f4 06 09 4b 	lsl	r11,r10,r6
8000521c:	30 0a       	mov	r10,0
8000521e:	0c 17       	sub	r7,r6
80005220:	fe 9a ff be 	brle	8000519c <__avr32_f64_sub_subnormal_result>
80005224:	c8 5b       	rjmp	8000512e <__avr32_f64_sub_longnormalize_done>
80005226:	d7 03       	nop

80005228 <__avr32_f64_add_from_sub>:
80005228:	ee 19 80 00 	eorh	r9,0x8000

8000522c <__avr32_f64_add>:
8000522c:	f7 e9 20 0c 	eor	r12,r11,r9
80005230:	fe 96 ff 2e 	brmi	8000508c <__avr32_f64_sub_from_add>
80005234:	eb cd 40 e0 	pushm	r5-r7,lr
80005238:	16 9c       	mov	r12,r11
8000523a:	e6 1c 80 00 	andh	r12,0x8000,COH
8000523e:	bf db       	cbr	r11,0x1f
80005240:	bf d9       	cbr	r9,0x1f
80005242:	12 3b       	cp.w	r11,r9
80005244:	c0 72       	brcc	80005252 <__avr32_f64_add+0x26>
80005246:	16 97       	mov	r7,r11
80005248:	12 9b       	mov	r11,r9
8000524a:	0e 99       	mov	r9,r7
8000524c:	14 97       	mov	r7,r10
8000524e:	10 9a       	mov	r10,r8
80005250:	0e 98       	mov	r8,r7
80005252:	30 0e       	mov	lr,0
80005254:	ef db c2 8b 	bfextu	r7,r11,0x14,0xb
80005258:	f7 db c0 14 	bfextu	r11,r11,0x0,0x14
8000525c:	b5 ab       	sbr	r11,0x14
8000525e:	ed d9 c2 8b 	bfextu	r6,r9,0x14,0xb
80005262:	c6 20       	breq	80005326 <__avr32_f64_add_op2_subnormal>
80005264:	f3 d9 c0 14 	bfextu	r9,r9,0x0,0x14
80005268:	b5 a9       	sbr	r9,0x14
8000526a:	e0 47 07 ff 	cp.w	r7,2047
8000526e:	c2 80       	breq	800052be <__avr32_f64_add_opH_nan_or_inf>
80005270:	0e 26       	rsub	r6,r7
80005272:	c1 20       	breq	80005296 <__avr32_f64_add_shift_done>
80005274:	e0 46 00 36 	cp.w	r6,54
80005278:	c1 52       	brcc	800052a2 <__avr32_f64_add_res_of_done>
8000527a:	ec 05 11 20 	rsub	r5,r6,32
8000527e:	e0 46 00 20 	cp.w	r6,32
80005282:	c3 52       	brcc	800052ec <__avr32_f64_add_longshift>
80005284:	f0 05 09 4e 	lsl	lr,r8,r5
80005288:	f2 05 09 45 	lsl	r5,r9,r5
8000528c:	f0 06 0a 48 	lsr	r8,r8,r6
80005290:	f2 06 0a 49 	lsr	r9,r9,r6
80005294:	0a 48       	or	r8,r5

80005296 <__avr32_f64_add_shift_done>:
80005296:	10 0a       	add	r10,r8
80005298:	f6 09 00 4b 	adc	r11,r11,r9
8000529c:	ed bb 00 15 	bld	r11,0x15
800052a0:	c3 40       	breq	80005308 <__avr32_f64_add_res_of>

800052a2 <__avr32_f64_add_res_of_done>:
800052a2:	f7 d7 d2 8b 	bfins	r11,r7,0x14,0xb
800052a6:	18 4b       	or	r11,r12

800052a8 <__avr32_f64_add_round>:
800052a8:	f9 da c0 01 	bfextu	r12,r10,0x0,0x1
800052ac:	18 4e       	or	lr,r12
800052ae:	ee 1e 80 00 	eorh	lr,0x8000
800052b2:	f1 be 04 20 	satu	lr,0x1
800052b6:	1c 0a       	add	r10,lr
800052b8:	5c 0b       	acr	r11
800052ba:	e3 cd 80 e0 	ldm	sp++,r5-r7,pc

800052be <__avr32_f64_add_opH_nan_or_inf>:
800052be:	b5 cb       	cbr	r11,0x14
800052c0:	f7 ea 10 0e 	or	lr,r11,r10
800052c4:	c1 01       	brne	800052e4 <__avr32_f64_add_return_nan>
800052c6:	e0 46 07 ff 	cp.w	r6,2047
800052ca:	c0 30       	breq	800052d0 <__avr32_f64_add_opL_nan_or_inf>
800052cc:	e3 cd 80 e0 	ldm	sp++,r5-r7,pc

800052d0 <__avr32_f64_add_opL_nan_or_inf>:
800052d0:	b5 c9       	cbr	r9,0x14
800052d2:	f3 e8 10 0e 	or	lr,r9,r8
800052d6:	c0 71       	brne	800052e4 <__avr32_f64_add_return_nan>
800052d8:	30 0a       	mov	r10,0
800052da:	fc 1b 7f f0 	movh	r11,0x7ff0
800052de:	18 4b       	or	r11,r12
800052e0:	e3 cd 80 e0 	ldm	sp++,r5-r7,pc

800052e4 <__avr32_f64_add_return_nan>:
800052e4:	3f fa       	mov	r10,-1
800052e6:	3f fb       	mov	r11,-1
800052e8:	e3 cd 80 e0 	ldm	sp++,r5-r7,pc

800052ec <__avr32_f64_add_longshift>:
800052ec:	f1 b6 04 c0 	satu	r6,0x6
800052f0:	f0 0e 17 00 	moveq	lr,r8
800052f4:	c0 60       	breq	80005300 <__avr32_f64_add_longshift+0x14>
800052f6:	f2 05 09 4e 	lsl	lr,r9,r5
800052fa:	58 08       	cp.w	r8,0
800052fc:	5f 18       	srne	r8
800052fe:	10 4e       	or	lr,r8
80005300:	f2 06 0a 48 	lsr	r8,r9,r6
80005304:	30 09       	mov	r9,0
80005306:	cc 8b       	rjmp	80005296 <__avr32_f64_add_shift_done>

80005308 <__avr32_f64_add_res_of>:
80005308:	fd ee 10 1e 	or	lr,lr,lr<<0x1
8000530c:	a1 9b       	lsr	r11,0x1
8000530e:	5d 0a       	ror	r10
80005310:	5d 0e       	ror	lr
80005312:	2f f7       	sub	r7,-1
80005314:	e0 47 07 ff 	cp.w	r7,2047
80005318:	f9 ba 00 00 	moveq	r10,0
8000531c:	f9 bb 00 00 	moveq	r11,0
80005320:	f9 be 00 00 	moveq	lr,0
80005324:	cb fb       	rjmp	800052a2 <__avr32_f64_add_res_of_done>

80005326 <__avr32_f64_add_op2_subnormal>:
80005326:	30 16       	mov	r6,1
80005328:	58 07       	cp.w	r7,0
8000532a:	ca 01       	brne	8000526a <__avr32_f64_add+0x3e>
8000532c:	b5 cb       	cbr	r11,0x14
8000532e:	10 0a       	add	r10,r8
80005330:	f6 09 00 4b 	adc	r11,r11,r9
80005334:	18 4b       	or	r11,r12
80005336:	e3 cd 80 e0 	ldm	sp++,r5-r7,pc
8000533a:	d7 03       	nop

8000533c <__avr32_u32_to_f64>:
8000533c:	f8 cb 00 00 	sub	r11,r12,0
80005340:	30 0c       	mov	r12,0
80005342:	c0 38       	rjmp	80005348 <__avr32_s32_to_f64+0x4>

80005344 <__avr32_s32_to_f64>:
80005344:	18 9b       	mov	r11,r12
80005346:	5c 4b       	abs	r11
80005348:	30 0a       	mov	r10,0
8000534a:	5e 0b       	reteq	r11
8000534c:	d4 01       	pushm	lr
8000534e:	e0 69 04 1e 	mov	r9,1054
80005352:	f6 08 12 00 	clz	r8,r11
80005356:	c1 70       	breq	80005384 <__avr32_s32_to_f64+0x40>
80005358:	c0 c3       	brcs	80005370 <__avr32_s32_to_f64+0x2c>
8000535a:	f0 0e 11 20 	rsub	lr,r8,32
8000535e:	f6 08 09 4b 	lsl	r11,r11,r8
80005362:	f4 0e 0a 4e 	lsr	lr,r10,lr
80005366:	1c 4b       	or	r11,lr
80005368:	f4 08 09 4a 	lsl	r10,r10,r8
8000536c:	10 19       	sub	r9,r8
8000536e:	c0 b8       	rjmp	80005384 <__avr32_s32_to_f64+0x40>
80005370:	f4 08 12 00 	clz	r8,r10
80005374:	f9 b8 03 00 	movlo	r8,0
80005378:	f7 b8 02 e0 	subhs	r8,-32
8000537c:	f4 08 09 4b 	lsl	r11,r10,r8
80005380:	30 0a       	mov	r10,0
80005382:	10 19       	sub	r9,r8
80005384:	58 09       	cp.w	r9,0
80005386:	e0 89 00 30 	brgt	800053e6 <__avr32_s32_to_f64+0xa2>
8000538a:	5c 39       	neg	r9
8000538c:	2f f9       	sub	r9,-1
8000538e:	e0 49 00 36 	cp.w	r9,54
80005392:	c0 43       	brcs	8000539a <__avr32_s32_to_f64+0x56>
80005394:	30 0b       	mov	r11,0
80005396:	30 0a       	mov	r10,0
80005398:	c2 68       	rjmp	800053e4 <__avr32_s32_to_f64+0xa0>
8000539a:	2f 69       	sub	r9,-10
8000539c:	f2 08 11 20 	rsub	r8,r9,32
800053a0:	e0 49 00 20 	cp.w	r9,32
800053a4:	c0 b2       	brcc	800053ba <__avr32_s32_to_f64+0x76>
800053a6:	f4 08 09 4e 	lsl	lr,r10,r8
800053aa:	f6 08 09 48 	lsl	r8,r11,r8
800053ae:	f4 09 0a 4a 	lsr	r10,r10,r9
800053b2:	f6 09 0a 4b 	lsr	r11,r11,r9
800053b6:	10 4b       	or	r11,r8
800053b8:	c0 88       	rjmp	800053c8 <__avr32_s32_to_f64+0x84>
800053ba:	f6 08 09 4e 	lsl	lr,r11,r8
800053be:	14 4e       	or	lr,r10
800053c0:	16 9a       	mov	r10,r11
800053c2:	30 0b       	mov	r11,0
800053c4:	f4 09 0a 4a 	lsr	r10,r10,r9
800053c8:	ed ba 00 00 	bld	r10,0x0
800053cc:	c0 92       	brcc	800053de <__avr32_s32_to_f64+0x9a>
800053ce:	1c 7e       	tst	lr,lr
800053d0:	c0 41       	brne	800053d8 <__avr32_s32_to_f64+0x94>
800053d2:	ed ba 00 01 	bld	r10,0x1
800053d6:	c0 42       	brcc	800053de <__avr32_s32_to_f64+0x9a>
800053d8:	2f fa       	sub	r10,-1
800053da:	f7 bb 02 ff 	subhs	r11,-1
800053de:	5c fc       	rol	r12
800053e0:	5d 0b       	ror	r11
800053e2:	5d 0a       	ror	r10
800053e4:	d8 02       	popm	pc
800053e6:	e0 68 03 ff 	mov	r8,1023
800053ea:	ed ba 00 0b 	bld	r10,0xb
800053ee:	f7 b8 00 ff 	subeq	r8,-1
800053f2:	10 0a       	add	r10,r8
800053f4:	5c 0b       	acr	r11
800053f6:	f7 b9 03 fe 	sublo	r9,-2
800053fa:	e0 49 07 ff 	cp.w	r9,2047
800053fe:	c0 55       	brlt	80005408 <__avr32_s32_to_f64+0xc4>
80005400:	30 0a       	mov	r10,0
80005402:	fc 1b ff e0 	movh	r11,0xffe0
80005406:	c0 c8       	rjmp	8000541e <__floatsidf_return_op1>
80005408:	ed bb 00 1f 	bld	r11,0x1f
8000540c:	f7 b9 01 01 	subne	r9,1
80005410:	ab 9a       	lsr	r10,0xb
80005412:	f5 eb 11 5a 	or	r10,r10,r11<<0x15
80005416:	a1 7b       	lsl	r11,0x1
80005418:	ab 9b       	lsr	r11,0xb
8000541a:	f7 e9 11 5b 	or	r11,r11,r9<<0x15

8000541e <__floatsidf_return_op1>:
8000541e:	a1 7c       	lsl	r12,0x1
80005420:	5d 0b       	ror	r11
80005422:	d8 02       	popm	pc

80005424 <__avr32_f32_div>:
80005424:	f7 ec 20 08 	eor	r8,r11,r12
80005428:	a1 7c       	lsl	r12,0x1
8000542a:	a1 7b       	lsl	r11,0x1
8000542c:	c7 a0       	breq	80005520 <__divsf_return_op1+0x16>
8000542e:	18 7c       	tst	r12,r12
80005430:	f9 b9 00 00 	moveq	r9,0
80005434:	c0 90       	breq	80005446 <__avr32_f32_div+0x22>
80005436:	f8 09 16 18 	lsr	r9,r12,0x18
8000543a:	c7 e0       	breq	80005536 <__divsf_return_op1+0x2c>
8000543c:	e0 49 00 ff 	cp.w	r9,255
80005440:	c6 82       	brcc	80005510 <__divsf_return_op1+0x6>
80005442:	a7 7c       	lsl	r12,0x7
80005444:	bf bc       	sbr	r12,0x1f
80005446:	f6 0a 16 18 	lsr	r10,r11,0x18
8000544a:	c7 e0       	breq	80005546 <__divsf_return_op1+0x3c>
8000544c:	e0 4a 00 ff 	cp.w	r10,255
80005450:	c6 62       	brcc	8000551c <__divsf_return_op1+0x12>
80005452:	a7 7b       	lsl	r11,0x7
80005454:	bf bb       	sbr	r11,0x1f
80005456:	58 09       	cp.w	r9,0
80005458:	f5 bc 00 00 	subfeq	r12,0
8000545c:	5e 0d       	reteq	0
8000545e:	1a d5       	st.w	--sp,r5
80005460:	bb 27       	st.d	--sp,r6
80005462:	14 19       	sub	r9,r10
80005464:	28 19       	sub	r9,-127
80005466:	fc 1a 80 00 	movh	r10,0x8000
8000546a:	a3 8c       	lsr	r12,0x2
8000546c:	f6 05 16 02 	lsr	r5,r11,0x2
80005470:	f4 0b 16 01 	lsr	r11,r10,0x1
80005474:	ed d5 c3 62 	bfextu	r6,r5,0x1b,0x2
80005478:	5c d6       	com	r6
8000547a:	f7 d6 d3 82 	bfins	r11,r6,0x1c,0x2
8000547e:	f6 05 06 46 	mulu.d	r6,r11,r5
80005482:	f4 07 01 27 	sub	r7,r10,r7<<0x2
80005486:	f6 07 06 46 	mulu.d	r6,r11,r7
8000548a:	ee 0b 15 02 	lsl	r11,r7,0x2
8000548e:	f6 05 06 46 	mulu.d	r6,r11,r5
80005492:	f4 07 01 27 	sub	r7,r10,r7<<0x2
80005496:	f6 07 06 46 	mulu.d	r6,r11,r7
8000549a:	ee 0b 15 02 	lsl	r11,r7,0x2
8000549e:	f6 05 06 46 	mulu.d	r6,r11,r5
800054a2:	f4 07 01 27 	sub	r7,r10,r7<<0x2
800054a6:	f6 07 06 46 	mulu.d	r6,r11,r7
800054aa:	ee 0b 15 02 	lsl	r11,r7,0x2
800054ae:	f6 05 06 46 	mulu.d	r6,r11,r5
800054b2:	f4 07 01 27 	sub	r7,r10,r7<<0x2
800054b6:	f6 07 06 46 	mulu.d	r6,r11,r7
800054ba:	ee 0b 15 02 	lsl	r11,r7,0x2
800054be:	f6 0c 06 46 	mulu.d	r6,r11,r12
800054c2:	a5 8c       	lsr	r12,0x4
800054c4:	ed b7 00 1c 	bld	r7,0x1c
800054c8:	c0 40       	breq	800054d0 <__avr32_f32_div+0xac>
800054ca:	a1 77       	lsl	r7,0x1
800054cc:	20 19       	sub	r9,1
800054ce:	a1 7c       	lsl	r12,0x1
800054d0:	58 09       	cp.w	r9,0
800054d2:	e0 8a 00 42 	brle	80005556 <__avr32_f32_div_res_subnormal>
800054d6:	e0 17 ff e0 	andl	r7,0xffe0
800054da:	e8 17 00 10 	orl	r7,0x10
800054de:	ea 07 06 4a 	mulu.d	r10,r5,r7
800054e2:	eb d7 c0 a1 	bfextu	r5,r7,0x5,0x1
800054e6:	58 0a       	cp.w	r10,0

800054e8 <__avr32_f32_div_round_subnormal>:
800054e8:	f8 0b 13 00 	cpc	r11,r12
800054ec:	5f 3b       	srlo	r11
800054ee:	ea 0b 17 00 	moveq	r11,r5
800054f2:	ee 0c 16 05 	lsr	r12,r7,0x5
800054f6:	f9 d9 d2 e8 	bfins	r12,r9,0x17,0x8
800054fa:	bb 07       	ld.d	r6,sp++
800054fc:	1b 05       	ld.w	r5,sp++
800054fe:	ed b8 00 1f 	bld	r8,0x1f
80005502:	ef bc 00 1f 	bst	r12,0x1f
80005506:	16 0c       	add	r12,r11
80005508:	5e fc       	retal	r12

8000550a <__divsf_return_op1>:
8000550a:	a1 78       	lsl	r8,0x1
8000550c:	5d 0c       	ror	r12
8000550e:	5e fc       	retal	r12
80005510:	5e 1e       	retne	-1
80005512:	fc 19 ff 00 	movh	r9,0xff00
80005516:	12 3b       	cp.w	r11,r9
80005518:	cf 93       	brcs	8000550a <__divsf_return_op1>
8000551a:	5e fe       	retal	-1
8000551c:	5e 0d       	reteq	0
8000551e:	5e fe       	retal	-1
80005520:	18 7c       	tst	r12,r12
80005522:	5e 0e       	reteq	-1
80005524:	f8 09 16 18 	lsr	r9,r12,0x18
80005528:	c0 70       	breq	80005536 <__divsf_return_op1+0x2c>
8000552a:	e0 49 00 ff 	cp.w	r9,255
8000552e:	cf 12       	brcc	80005510 <__divsf_return_op1+0x6>
80005530:	fc 1c ff 00 	movh	r12,0xff00
80005534:	ce bb       	rjmp	8000550a <__divsf_return_op1>
80005536:	a7 7c       	lsl	r12,0x7
80005538:	f8 09 12 00 	clz	r9,r12
8000553c:	f8 09 09 4c 	lsl	r12,r12,r9
80005540:	f2 09 11 01 	rsub	r9,r9,1
80005544:	c8 1b       	rjmp	80005446 <__avr32_f32_div+0x22>
80005546:	a7 7b       	lsl	r11,0x7
80005548:	f6 0a 12 00 	clz	r10,r11
8000554c:	f6 0a 09 4b 	lsl	r11,r11,r10
80005550:	f4 0a 11 01 	rsub	r10,r10,1
80005554:	c8 5b       	rjmp	8000545e <__avr32_f32_div+0x3a>

80005556 <__avr32_f32_div_res_subnormal>:
80005556:	5c 39       	neg	r9
80005558:	2f f9       	sub	r9,-1
8000555a:	f1 b9 04 a0 	satu	r9,0x5
8000555e:	f2 0a 11 20 	rsub	r10,r9,32
80005562:	ee 09 0a 47 	lsr	r7,r7,r9
80005566:	f8 0a 09 46 	lsl	r6,r12,r10
8000556a:	f8 09 0a 4c 	lsr	r12,r12,r9
8000556e:	e0 17 ff e0 	andl	r7,0xffe0
80005572:	e8 17 00 10 	orl	r7,0x10
80005576:	ea 07 06 4a 	mulu.d	r10,r5,r7
8000557a:	30 09       	mov	r9,0
8000557c:	eb d7 c0 a1 	bfextu	r5,r7,0x5,0x1
80005580:	0c 3a       	cp.w	r10,r6
80005582:	cb 3b       	rjmp	800054e8 <__avr32_f32_div_round_subnormal>

80005584 <__avr32_f64_to_f32>:
80005584:	f6 09 15 01 	lsl	r9,r11,0x1
80005588:	b5 99       	lsr	r9,0x15
8000558a:	5e 0d       	reteq	0
8000558c:	f6 08 15 0a 	lsl	r8,r11,0xa
80005590:	f1 ea 13 6c 	or	r12,r8,r10>>0x16
80005594:	ab 6a       	lsl	r10,0xa
80005596:	5c 3a       	neg	r10
80005598:	5c fc       	rol	r12
8000559a:	e0 49 07 ff 	cp.w	r9,2047
8000559e:	c1 a0       	breq	800055d2 <__truncdfsf_return_op1+0x6>
800055a0:	e0 29 03 80 	sub	r9,896
800055a4:	bf bc       	sbr	r12,0x1f
800055a6:	58 09       	cp.w	r9,0
800055a8:	e0 8a 00 1a 	brle	800055dc <__truncdfsf_return_op1+0x10>
800055ac:	37 fa       	mov	r10,127
800055ae:	ed bc 00 08 	bld	r12,0x8
800055b2:	f7 ba 00 ff 	subeq	r10,-1
800055b6:	14 0c       	add	r12,r10
800055b8:	f7 b9 03 fe 	sublo	r9,-2
800055bc:	ed bc 00 1f 	bld	r12,0x1f
800055c0:	f7 b9 01 01 	subne	r9,1
800055c4:	f8 0c 16 07 	lsr	r12,r12,0x7
800055c8:	f9 d9 d3 08 	bfins	r12,r9,0x18,0x8

800055cc <__truncdfsf_return_op1>:
800055cc:	a1 7b       	lsl	r11,0x1
800055ce:	5d 0c       	ror	r12
800055d0:	5e fc       	retal	r12
800055d2:	bf dc       	cbr	r12,0x1f
800055d4:	5e 1e       	retne	-1
800055d6:	fc 1c 7f 80 	movh	r12,0x7f80
800055da:	5e fc       	retal	r12
800055dc:	f2 09 11 01 	rsub	r9,r9,1
800055e0:	59 99       	cp.w	r9,25
800055e2:	f9 bc 02 00 	movhs	r12,0
800055e6:	c1 32       	brcc	8000560c <__truncdfsf_return_op1+0x40>
800055e8:	f2 0a 11 20 	rsub	r10,r9,32
800055ec:	f8 0a 09 4a 	lsl	r10,r12,r10
800055f0:	5f 1a       	srne	r10
800055f2:	f8 09 0a 4c 	lsr	r12,r12,r9
800055f6:	14 4c       	or	r12,r10
800055f8:	37 fa       	mov	r10,127
800055fa:	ed bc 00 08 	bld	r12,0x8
800055fe:	f7 ba 00 ff 	subeq	r10,-1
80005602:	14 0c       	add	r12,r10
80005604:	f8 0c 16 07 	lsr	r12,r12,0x7
80005608:	a1 7b       	lsl	r11,0x1
8000560a:	5d 0c       	ror	r12
8000560c:	5e fc       	retal	r12

8000560e <__avr32_udiv64>:
8000560e:	d4 31       	pushm	r0-r7,lr
80005610:	1a 97       	mov	r7,sp
80005612:	20 3d       	sub	sp,12
80005614:	10 9c       	mov	r12,r8
80005616:	12 9e       	mov	lr,r9
80005618:	14 93       	mov	r3,r10
8000561a:	58 09       	cp.w	r9,0
8000561c:	e0 81 00 bd 	brne	80005796 <__avr32_udiv64+0x188>
80005620:	16 38       	cp.w	r8,r11
80005622:	e0 88 00 40 	brls	800056a2 <__avr32_udiv64+0x94>
80005626:	f0 08 12 00 	clz	r8,r8
8000562a:	c0 d0       	breq	80005644 <__avr32_udiv64+0x36>
8000562c:	f6 08 09 4b 	lsl	r11,r11,r8
80005630:	f0 09 11 20 	rsub	r9,r8,32
80005634:	f8 08 09 4c 	lsl	r12,r12,r8
80005638:	f4 09 0a 49 	lsr	r9,r10,r9
8000563c:	f4 08 09 43 	lsl	r3,r10,r8
80005640:	f3 eb 10 0b 	or	r11,r9,r11
80005644:	f8 0e 16 10 	lsr	lr,r12,0x10
80005648:	f5 dc c0 10 	bfextu	r10,r12,0x0,0x10
8000564c:	f6 0e 0d 00 	divu	r0,r11,lr
80005650:	e6 0b 16 10 	lsr	r11,r3,0x10
80005654:	00 99       	mov	r9,r0
80005656:	f7 e1 11 0b 	or	r11,r11,r1<<0x10
8000565a:	e0 0a 02 48 	mul	r8,r0,r10
8000565e:	10 3b       	cp.w	r11,r8
80005660:	c0 a2       	brcc	80005674 <__avr32_udiv64+0x66>
80005662:	20 19       	sub	r9,1
80005664:	18 0b       	add	r11,r12
80005666:	18 3b       	cp.w	r11,r12
80005668:	c0 63       	brcs	80005674 <__avr32_udiv64+0x66>
8000566a:	10 3b       	cp.w	r11,r8
8000566c:	f7 b9 03 01 	sublo	r9,1
80005670:	f7 dc e3 0b 	addcs	r11,r11,r12
80005674:	f6 08 01 01 	sub	r1,r11,r8
80005678:	e7 d3 c0 10 	bfextu	r3,r3,0x0,0x10
8000567c:	e2 0e 0d 00 	divu	r0,r1,lr
80005680:	e7 e1 11 03 	or	r3,r3,r1<<0x10
80005684:	00 98       	mov	r8,r0
80005686:	e0 0a 02 4a 	mul	r10,r0,r10
8000568a:	14 33       	cp.w	r3,r10
8000568c:	c0 82       	brcc	8000569c <__avr32_udiv64+0x8e>
8000568e:	20 18       	sub	r8,1
80005690:	18 03       	add	r3,r12
80005692:	18 33       	cp.w	r3,r12
80005694:	c0 43       	brcs	8000569c <__avr32_udiv64+0x8e>
80005696:	14 33       	cp.w	r3,r10
80005698:	f7 b8 03 01 	sublo	r8,1
8000569c:	f1 e9 11 08 	or	r8,r8,r9<<0x10
800056a0:	cd f8       	rjmp	8000585e <__avr32_udiv64+0x250>
800056a2:	58 08       	cp.w	r8,0
800056a4:	c0 51       	brne	800056ae <__avr32_udiv64+0xa0>
800056a6:	30 19       	mov	r9,1
800056a8:	f2 08 0d 08 	divu	r8,r9,r8
800056ac:	10 9c       	mov	r12,r8
800056ae:	f8 06 12 00 	clz	r6,r12
800056b2:	c0 41       	brne	800056ba <__avr32_udiv64+0xac>
800056b4:	18 1b       	sub	r11,r12
800056b6:	30 19       	mov	r9,1
800056b8:	c4 08       	rjmp	80005738 <__avr32_udiv64+0x12a>
800056ba:	ec 01 11 20 	rsub	r1,r6,32
800056be:	f4 01 0a 49 	lsr	r9,r10,r1
800056c2:	f8 06 09 4c 	lsl	r12,r12,r6
800056c6:	f6 06 09 48 	lsl	r8,r11,r6
800056ca:	f6 01 0a 41 	lsr	r1,r11,r1
800056ce:	f3 e8 10 08 	or	r8,r9,r8
800056d2:	f8 03 16 10 	lsr	r3,r12,0x10
800056d6:	eb dc c0 10 	bfextu	r5,r12,0x0,0x10
800056da:	e2 03 0d 00 	divu	r0,r1,r3
800056de:	f0 0b 16 10 	lsr	r11,r8,0x10
800056e2:	00 9e       	mov	lr,r0
800056e4:	f7 e1 11 0b 	or	r11,r11,r1<<0x10
800056e8:	e0 05 02 49 	mul	r9,r0,r5
800056ec:	12 3b       	cp.w	r11,r9
800056ee:	c0 a2       	brcc	80005702 <__avr32_udiv64+0xf4>
800056f0:	20 1e       	sub	lr,1
800056f2:	18 0b       	add	r11,r12
800056f4:	18 3b       	cp.w	r11,r12
800056f6:	c0 63       	brcs	80005702 <__avr32_udiv64+0xf4>
800056f8:	12 3b       	cp.w	r11,r9
800056fa:	f7 be 03 01 	sublo	lr,1
800056fe:	f7 dc e3 0b 	addcs	r11,r11,r12
80005702:	12 1b       	sub	r11,r9
80005704:	f1 d8 c0 10 	bfextu	r8,r8,0x0,0x10
80005708:	f6 03 0d 02 	divu	r2,r11,r3
8000570c:	f1 e3 11 08 	or	r8,r8,r3<<0x10
80005710:	04 99       	mov	r9,r2
80005712:	e4 05 02 4b 	mul	r11,r2,r5
80005716:	16 38       	cp.w	r8,r11
80005718:	c0 a2       	brcc	8000572c <__avr32_udiv64+0x11e>
8000571a:	20 19       	sub	r9,1
8000571c:	18 08       	add	r8,r12
8000571e:	18 38       	cp.w	r8,r12
80005720:	c0 63       	brcs	8000572c <__avr32_udiv64+0x11e>
80005722:	16 38       	cp.w	r8,r11
80005724:	f7 b9 03 01 	sublo	r9,1
80005728:	f1 dc e3 08 	addcs	r8,r8,r12
8000572c:	f4 06 09 43 	lsl	r3,r10,r6
80005730:	f0 0b 01 0b 	sub	r11,r8,r11
80005734:	f3 ee 11 09 	or	r9,r9,lr<<0x10
80005738:	f8 06 16 10 	lsr	r6,r12,0x10
8000573c:	fd dc c0 10 	bfextu	lr,r12,0x0,0x10
80005740:	f6 06 0d 00 	divu	r0,r11,r6
80005744:	e6 0b 16 10 	lsr	r11,r3,0x10
80005748:	00 9a       	mov	r10,r0
8000574a:	f7 e1 11 0b 	or	r11,r11,r1<<0x10
8000574e:	e0 0e 02 48 	mul	r8,r0,lr
80005752:	10 3b       	cp.w	r11,r8
80005754:	c0 a2       	brcc	80005768 <__avr32_udiv64+0x15a>
80005756:	20 1a       	sub	r10,1
80005758:	18 0b       	add	r11,r12
8000575a:	18 3b       	cp.w	r11,r12
8000575c:	c0 63       	brcs	80005768 <__avr32_udiv64+0x15a>
8000575e:	10 3b       	cp.w	r11,r8
80005760:	f7 ba 03 01 	sublo	r10,1
80005764:	f7 dc e3 0b 	addcs	r11,r11,r12
80005768:	f6 08 01 01 	sub	r1,r11,r8
8000576c:	e7 d3 c0 10 	bfextu	r3,r3,0x0,0x10
80005770:	e2 06 0d 00 	divu	r0,r1,r6
80005774:	e7 e1 11 03 	or	r3,r3,r1<<0x10
80005778:	00 98       	mov	r8,r0
8000577a:	e0 0e 02 4b 	mul	r11,r0,lr
8000577e:	16 33       	cp.w	r3,r11
80005780:	c0 82       	brcc	80005790 <__avr32_udiv64+0x182>
80005782:	20 18       	sub	r8,1
80005784:	18 03       	add	r3,r12
80005786:	18 33       	cp.w	r3,r12
80005788:	c0 43       	brcs	80005790 <__avr32_udiv64+0x182>
8000578a:	16 33       	cp.w	r3,r11
8000578c:	f7 b8 03 01 	sublo	r8,1
80005790:	f1 ea 11 08 	or	r8,r8,r10<<0x10
80005794:	c6 98       	rjmp	80005866 <__avr32_udiv64+0x258>
80005796:	16 39       	cp.w	r9,r11
80005798:	e0 8b 00 65 	brhi	80005862 <__avr32_udiv64+0x254>
8000579c:	f2 09 12 00 	clz	r9,r9
800057a0:	c0 b1       	brne	800057b6 <__avr32_udiv64+0x1a8>
800057a2:	10 3a       	cp.w	r10,r8
800057a4:	5f 2a       	srhs	r10
800057a6:	1c 3b       	cp.w	r11,lr
800057a8:	5f b8       	srhi	r8
800057aa:	10 4a       	or	r10,r8
800057ac:	f2 0a 18 00 	cp.b	r10,r9
800057b0:	c5 90       	breq	80005862 <__avr32_udiv64+0x254>
800057b2:	30 18       	mov	r8,1
800057b4:	c5 98       	rjmp	80005866 <__avr32_udiv64+0x258>
800057b6:	f0 09 09 46 	lsl	r6,r8,r9
800057ba:	f2 03 11 20 	rsub	r3,r9,32
800057be:	fc 09 09 4e 	lsl	lr,lr,r9
800057c2:	f0 03 0a 48 	lsr	r8,r8,r3
800057c6:	f6 09 09 4c 	lsl	r12,r11,r9
800057ca:	f4 03 0a 42 	lsr	r2,r10,r3
800057ce:	ef 46 ff f4 	st.w	r7[-12],r6
800057d2:	f6 03 0a 43 	lsr	r3,r11,r3
800057d6:	18 42       	or	r2,r12
800057d8:	f1 ee 10 0c 	or	r12,r8,lr
800057dc:	f8 01 16 10 	lsr	r1,r12,0x10
800057e0:	ed dc c0 10 	bfextu	r6,r12,0x0,0x10
800057e4:	e6 01 0d 04 	divu	r4,r3,r1
800057e8:	e4 03 16 10 	lsr	r3,r2,0x10
800057ec:	08 9e       	mov	lr,r4
800057ee:	e7 e5 11 03 	or	r3,r3,r5<<0x10
800057f2:	e8 06 02 48 	mul	r8,r4,r6
800057f6:	10 33       	cp.w	r3,r8
800057f8:	c0 a2       	brcc	8000580c <__avr32_udiv64+0x1fe>
800057fa:	20 1e       	sub	lr,1
800057fc:	18 03       	add	r3,r12
800057fe:	18 33       	cp.w	r3,r12
80005800:	c0 63       	brcs	8000580c <__avr32_udiv64+0x1fe>
80005802:	10 33       	cp.w	r3,r8
80005804:	f7 be 03 01 	sublo	lr,1
80005808:	e7 dc e3 03 	addcs	r3,r3,r12
8000580c:	10 13       	sub	r3,r8
8000580e:	f7 d2 c0 10 	bfextu	r11,r2,0x0,0x10
80005812:	e6 01 0d 00 	divu	r0,r3,r1
80005816:	f7 e1 11 0b 	or	r11,r11,r1<<0x10
8000581a:	00 98       	mov	r8,r0
8000581c:	e0 06 02 46 	mul	r6,r0,r6
80005820:	0c 3b       	cp.w	r11,r6
80005822:	c0 a2       	brcc	80005836 <__avr32_udiv64+0x228>
80005824:	20 18       	sub	r8,1
80005826:	18 0b       	add	r11,r12
80005828:	18 3b       	cp.w	r11,r12
8000582a:	c0 63       	brcs	80005836 <__avr32_udiv64+0x228>
8000582c:	0c 3b       	cp.w	r11,r6
8000582e:	f7 dc e3 0b 	addcs	r11,r11,r12
80005832:	f7 b8 03 01 	sublo	r8,1
80005836:	f1 ee 11 08 	or	r8,r8,lr<<0x10
8000583a:	ee f4 ff f4 	ld.w	r4,r7[-12]
8000583e:	0c 1b       	sub	r11,r6
80005840:	f0 04 06 42 	mulu.d	r2,r8,r4
80005844:	06 95       	mov	r5,r3
80005846:	16 35       	cp.w	r5,r11
80005848:	e0 8b 00 0a 	brhi	8000585c <__avr32_udiv64+0x24e>
8000584c:	5f 0b       	sreq	r11
8000584e:	f4 09 09 49 	lsl	r9,r10,r9
80005852:	12 32       	cp.w	r2,r9
80005854:	5f b9       	srhi	r9
80005856:	f7 e9 00 09 	and	r9,r11,r9
8000585a:	c0 60       	breq	80005866 <__avr32_udiv64+0x258>
8000585c:	20 18       	sub	r8,1
8000585e:	30 09       	mov	r9,0
80005860:	c0 38       	rjmp	80005866 <__avr32_udiv64+0x258>
80005862:	30 09       	mov	r9,0
80005864:	12 98       	mov	r8,r9
80005866:	10 9a       	mov	r10,r8
80005868:	12 93       	mov	r3,r9
8000586a:	10 92       	mov	r2,r8
8000586c:	12 9b       	mov	r11,r9
8000586e:	2f dd       	sub	sp,-12
80005870:	d8 32       	popm	r0-r7,pc

80005872 <memcpy>:
80005872:	58 8a       	cp.w	r10,8
80005874:	c2 f5       	brlt	800058d2 <memcpy+0x60>
80005876:	f9 eb 10 09 	or	r9,r12,r11
8000587a:	e2 19 00 03 	andl	r9,0x3,COH
8000587e:	e0 81 00 97 	brne	800059ac <memcpy+0x13a>
80005882:	e0 4a 00 20 	cp.w	r10,32
80005886:	c3 b4       	brge	800058fc <memcpy+0x8a>
80005888:	f4 08 14 02 	asr	r8,r10,0x2
8000588c:	f0 09 11 08 	rsub	r9,r8,8
80005890:	fe 09 00 2f 	add	pc,pc,r9<<0x2
80005894:	76 69       	ld.w	r9,r11[0x18]
80005896:	99 69       	st.w	r12[0x18],r9
80005898:	76 59       	ld.w	r9,r11[0x14]
8000589a:	99 59       	st.w	r12[0x14],r9
8000589c:	76 49       	ld.w	r9,r11[0x10]
8000589e:	99 49       	st.w	r12[0x10],r9
800058a0:	76 39       	ld.w	r9,r11[0xc]
800058a2:	99 39       	st.w	r12[0xc],r9
800058a4:	76 29       	ld.w	r9,r11[0x8]
800058a6:	99 29       	st.w	r12[0x8],r9
800058a8:	76 19       	ld.w	r9,r11[0x4]
800058aa:	99 19       	st.w	r12[0x4],r9
800058ac:	76 09       	ld.w	r9,r11[0x0]
800058ae:	99 09       	st.w	r12[0x0],r9
800058b0:	f6 08 00 2b 	add	r11,r11,r8<<0x2
800058b4:	f8 08 00 28 	add	r8,r12,r8<<0x2
800058b8:	e0 1a 00 03 	andl	r10,0x3
800058bc:	f4 0a 11 04 	rsub	r10,r10,4
800058c0:	fe 0a 00 2f 	add	pc,pc,r10<<0x2
800058c4:	17 a9       	ld.ub	r9,r11[0x2]
800058c6:	b0 a9       	st.b	r8[0x2],r9
800058c8:	17 99       	ld.ub	r9,r11[0x1]
800058ca:	b0 99       	st.b	r8[0x1],r9
800058cc:	17 89       	ld.ub	r9,r11[0x0]
800058ce:	b0 89       	st.b	r8[0x0],r9
800058d0:	5e fc       	retal	r12
800058d2:	f4 0a 11 09 	rsub	r10,r10,9
800058d6:	fe 0a 00 2f 	add	pc,pc,r10<<0x2
800058da:	17 f9       	ld.ub	r9,r11[0x7]
800058dc:	b8 f9       	st.b	r12[0x7],r9
800058de:	17 e9       	ld.ub	r9,r11[0x6]
800058e0:	b8 e9       	st.b	r12[0x6],r9
800058e2:	17 d9       	ld.ub	r9,r11[0x5]
800058e4:	b8 d9       	st.b	r12[0x5],r9
800058e6:	17 c9       	ld.ub	r9,r11[0x4]
800058e8:	b8 c9       	st.b	r12[0x4],r9
800058ea:	17 b9       	ld.ub	r9,r11[0x3]
800058ec:	b8 b9       	st.b	r12[0x3],r9
800058ee:	17 a9       	ld.ub	r9,r11[0x2]
800058f0:	b8 a9       	st.b	r12[0x2],r9
800058f2:	17 99       	ld.ub	r9,r11[0x1]
800058f4:	b8 99       	st.b	r12[0x1],r9
800058f6:	17 89       	ld.ub	r9,r11[0x0]
800058f8:	b8 89       	st.b	r12[0x0],r9
800058fa:	5e fc       	retal	r12
800058fc:	eb cd 40 c0 	pushm	r6-r7,lr
80005900:	18 99       	mov	r9,r12
80005902:	22 0a       	sub	r10,32
80005904:	b7 07       	ld.d	r6,r11++
80005906:	b3 26       	st.d	r9++,r6
80005908:	b7 07       	ld.d	r6,r11++
8000590a:	b3 26       	st.d	r9++,r6
8000590c:	b7 07       	ld.d	r6,r11++
8000590e:	b3 26       	st.d	r9++,r6
80005910:	b7 07       	ld.d	r6,r11++
80005912:	b3 26       	st.d	r9++,r6
80005914:	22 0a       	sub	r10,32
80005916:	cf 74       	brge	80005904 <memcpy+0x92>
80005918:	2f 0a       	sub	r10,-16
8000591a:	c0 65       	brlt	80005926 <memcpy+0xb4>
8000591c:	b7 07       	ld.d	r6,r11++
8000591e:	b3 26       	st.d	r9++,r6
80005920:	b7 07       	ld.d	r6,r11++
80005922:	b3 26       	st.d	r9++,r6
80005924:	21 0a       	sub	r10,16
80005926:	5c 3a       	neg	r10
80005928:	fe 0a 00 3f 	add	pc,pc,r10<<0x3
8000592c:	d7 03       	nop
8000592e:	d7 03       	nop
80005930:	f7 36 00 0e 	ld.ub	r6,r11[14]
80005934:	f3 66 00 0e 	st.b	r9[14],r6
80005938:	f7 36 00 0d 	ld.ub	r6,r11[13]
8000593c:	f3 66 00 0d 	st.b	r9[13],r6
80005940:	f7 36 00 0c 	ld.ub	r6,r11[12]
80005944:	f3 66 00 0c 	st.b	r9[12],r6
80005948:	f7 36 00 0b 	ld.ub	r6,r11[11]
8000594c:	f3 66 00 0b 	st.b	r9[11],r6
80005950:	f7 36 00 0a 	ld.ub	r6,r11[10]
80005954:	f3 66 00 0a 	st.b	r9[10],r6
80005958:	f7 36 00 09 	ld.ub	r6,r11[9]
8000595c:	f3 66 00 09 	st.b	r9[9],r6
80005960:	f7 36 00 08 	ld.ub	r6,r11[8]
80005964:	f3 66 00 08 	st.b	r9[8],r6
80005968:	f7 36 00 07 	ld.ub	r6,r11[7]
8000596c:	f3 66 00 07 	st.b	r9[7],r6
80005970:	f7 36 00 06 	ld.ub	r6,r11[6]
80005974:	f3 66 00 06 	st.b	r9[6],r6
80005978:	f7 36 00 05 	ld.ub	r6,r11[5]
8000597c:	f3 66 00 05 	st.b	r9[5],r6
80005980:	f7 36 00 04 	ld.ub	r6,r11[4]
80005984:	f3 66 00 04 	st.b	r9[4],r6
80005988:	f7 36 00 03 	ld.ub	r6,r11[3]
8000598c:	f3 66 00 03 	st.b	r9[3],r6
80005990:	f7 36 00 02 	ld.ub	r6,r11[2]
80005994:	f3 66 00 02 	st.b	r9[2],r6
80005998:	f7 36 00 01 	ld.ub	r6,r11[1]
8000599c:	f3 66 00 01 	st.b	r9[1],r6
800059a0:	f7 36 00 00 	ld.ub	r6,r11[0]
800059a4:	f3 66 00 00 	st.b	r9[0],r6
800059a8:	e3 cd 80 c0 	ldm	sp++,r6-r7,pc
800059ac:	20 1a       	sub	r10,1
800059ae:	f6 0a 07 09 	ld.ub	r9,r11[r10]
800059b2:	f8 0a 0b 09 	st.b	r12[r10],r9
800059b6:	cf b1       	brne	800059ac <memcpy+0x13a>
800059b8:	5e fc       	retal	r12

800059ba <memset>:
800059ba:	18 98       	mov	r8,r12
800059bc:	c0 38       	rjmp	800059c2 <memset+0x8>
800059be:	10 cb       	st.b	r8++,r11
800059c0:	20 1a       	sub	r10,1
800059c2:	58 0a       	cp.w	r10,0
800059c4:	cf d1       	brne	800059be <memset+0x4>
800059c6:	5e fc       	retal	r12

800059c8 <strncpy>:
800059c8:	30 08       	mov	r8,0
800059ca:	10 3a       	cp.w	r10,r8
800059cc:	5e 0c       	reteq	r12
800059ce:	f6 08 07 09 	ld.ub	r9,r11[r8]
800059d2:	f8 08 0b 09 	st.b	r12[r8],r9
800059d6:	2f f8       	sub	r8,-1
800059d8:	58 09       	cp.w	r9,0
800059da:	cf 81       	brne	800059ca <strncpy+0x2>
800059dc:	10 3a       	cp.w	r10,r8
800059de:	5e 0c       	reteq	r12
800059e0:	f8 08 0b 09 	st.b	r12[r8],r9
800059e4:	2f f8       	sub	r8,-1
800059e6:	cf bb       	rjmp	800059dc <strncpy+0x14>

800059e8 <strstr>:
800059e8:	d4 01       	pushm	lr
800059ea:	30 08       	mov	r8,0
800059ec:	19 89       	ld.ub	r9,r12[0x0]
800059ee:	f0 09 18 00 	cp.b	r9,r8
800059f2:	c1 41       	brne	80005a1a <strstr+0x32>
800059f4:	17 88       	ld.ub	r8,r11[0x0]
800059f6:	f2 08 18 00 	cp.b	r8,r9
800059fa:	c1 51       	brne	80005a24 <strstr+0x3c>
800059fc:	d8 02       	popm	pc
800059fe:	30 08       	mov	r8,0
80005a00:	f6 08 07 09 	ld.ub	r9,r11[r8]
80005a04:	58 09       	cp.w	r9,0
80005a06:	c1 00       	breq	80005a26 <strstr+0x3e>
80005a08:	f8 08 07 0e 	ld.ub	lr,r12[r8]
80005a0c:	f2 0e 18 00 	cp.b	lr,r9
80005a10:	c0 31       	brne	80005a16 <strstr+0x2e>
80005a12:	2f f8       	sub	r8,-1
80005a14:	cf 6b       	rjmp	80005a00 <strstr+0x18>
80005a16:	2f fc       	sub	r12,-1
80005a18:	c0 28       	rjmp	80005a1c <strstr+0x34>
80005a1a:	10 9a       	mov	r10,r8
80005a1c:	19 88       	ld.ub	r8,r12[0x0]
80005a1e:	f4 08 18 00 	cp.b	r8,r10
80005a22:	ce e1       	brne	800059fe <strstr+0x16>
80005a24:	30 0c       	mov	r12,0
80005a26:	d8 02       	popm	pc

Disassembly of section .exception:

80005c00 <_evba>:
80005c00:	c0 08       	rjmp	80005c00 <_evba>
	...

80005c04 <_handle_TLB_Multiple_Hit>:
80005c04:	c0 08       	rjmp	80005c04 <_handle_TLB_Multiple_Hit>
	...

80005c08 <_handle_Bus_Error_Data_Fetch>:
80005c08:	c0 08       	rjmp	80005c08 <_handle_Bus_Error_Data_Fetch>
	...

80005c0c <_handle_Bus_Error_Instruction_Fetch>:
80005c0c:	c0 08       	rjmp	80005c0c <_handle_Bus_Error_Instruction_Fetch>
	...

80005c10 <_handle_NMI>:
80005c10:	c0 08       	rjmp	80005c10 <_handle_NMI>
	...

80005c14 <_handle_Instruction_Address>:
80005c14:	c0 08       	rjmp	80005c14 <_handle_Instruction_Address>
	...

80005c18 <_handle_ITLB_Protection>:
80005c18:	c0 08       	rjmp	80005c18 <_handle_ITLB_Protection>
	...

80005c1c <_handle_Breakpoint>:
80005c1c:	c0 08       	rjmp	80005c1c <_handle_Breakpoint>
	...

80005c20 <_handle_Illegal_Opcode>:
80005c20:	c0 08       	rjmp	80005c20 <_handle_Illegal_Opcode>
	...

80005c24 <_handle_Unimplemented_Instruction>:
80005c24:	c0 08       	rjmp	80005c24 <_handle_Unimplemented_Instruction>
	...

80005c28 <_handle_Privilege_Violation>:
80005c28:	c0 08       	rjmp	80005c28 <_handle_Privilege_Violation>
	...

80005c2c <_handle_Floating_Point>:
80005c2c:	c0 08       	rjmp	80005c2c <_handle_Floating_Point>
	...

80005c30 <_handle_Coprocessor_Absent>:
80005c30:	c0 08       	rjmp	80005c30 <_handle_Coprocessor_Absent>
	...

80005c34 <_handle_Data_Address_Read>:
80005c34:	c0 08       	rjmp	80005c34 <_handle_Data_Address_Read>
	...

80005c38 <_handle_Data_Address_Write>:
80005c38:	c0 08       	rjmp	80005c38 <_handle_Data_Address_Write>
	...

80005c3c <_handle_DTLB_Protection_Read>:
80005c3c:	c0 08       	rjmp	80005c3c <_handle_DTLB_Protection_Read>
	...

80005c40 <_handle_DTLB_Protection_Write>:
80005c40:	c0 08       	rjmp	80005c40 <_handle_DTLB_Protection_Write>
	...

80005c44 <_handle_DTLB_Modified>:
80005c44:	c0 08       	rjmp	80005c44 <_handle_DTLB_Modified>
	...

80005c50 <_handle_ITLB_Miss>:
80005c50:	c0 08       	rjmp	80005c50 <_handle_ITLB_Miss>
	...

80005c60 <_handle_DTLB_Miss_Read>:
80005c60:	c0 08       	rjmp	80005c60 <_handle_DTLB_Miss_Read>
	...

80005c70 <_handle_DTLB_Miss_Write>:
80005c70:	c0 08       	rjmp	80005c70 <_handle_DTLB_Miss_Write>
	...

80005d00 <_handle_Supervisor_Call>:
80005d00:	c0 08       	rjmp	80005d00 <_handle_Supervisor_Call>
80005d02:	d7 03       	nop

80005d04 <_int0>:
80005d04:	30 0c       	mov	r12,0
80005d06:	fe b0 ea 1f 	rcall	80003144 <_get_interrupt_handler>
80005d0a:	58 0c       	cp.w	r12,0
80005d0c:	f8 0f 17 10 	movne	pc,r12
80005d10:	d6 03       	rete

80005d12 <_int1>:
80005d12:	30 1c       	mov	r12,1
80005d14:	fe b0 ea 18 	rcall	80003144 <_get_interrupt_handler>
80005d18:	58 0c       	cp.w	r12,0
80005d1a:	f8 0f 17 10 	movne	pc,r12
80005d1e:	d6 03       	rete

80005d20 <_int2>:
80005d20:	30 2c       	mov	r12,2
80005d22:	fe b0 ea 11 	rcall	80003144 <_get_interrupt_handler>
80005d26:	58 0c       	cp.w	r12,0
80005d28:	f8 0f 17 10 	movne	pc,r12
80005d2c:	d6 03       	rete

80005d2e <_int3>:
80005d2e:	30 3c       	mov	r12,3
80005d30:	fe b0 ea 0a 	rcall	80003144 <_get_interrupt_handler>
80005d34:	58 0c       	cp.w	r12,0
80005d36:	f8 0f 17 10 	movne	pc,r12
80005d3a:	d6 03       	rete
80005d3c:	d7 03       	nop
80005d3e:	d7 03       	nop
80005d40:	d7 03       	nop
80005d42:	d7 03       	nop
80005d44:	d7 03       	nop
80005d46:	d7 03       	nop
80005d48:	d7 03       	nop
80005d4a:	d7 03       	nop
80005d4c:	d7 03       	nop
80005d4e:	d7 03       	nop
80005d50:	d7 03       	nop
80005d52:	d7 03       	nop
80005d54:	d7 03       	nop
80005d56:	d7 03       	nop
80005d58:	d7 03       	nop
80005d5a:	d7 03       	nop
80005d5c:	d7 03       	nop
80005d5e:	d7 03       	nop
80005d60:	d7 03       	nop
80005d62:	d7 03       	nop
80005d64:	d7 03       	nop
80005d66:	d7 03       	nop
80005d68:	d7 03       	nop
80005d6a:	d7 03       	nop
80005d6c:	d7 03       	nop
80005d6e:	d7 03       	nop
80005d70:	d7 03       	nop
80005d72:	d7 03       	nop
80005d74:	d7 03       	nop
80005d76:	d7 03       	nop
80005d78:	d7 03       	nop
80005d7a:	d7 03       	nop
80005d7c:	d7 03       	nop
80005d7e:	d7 03       	nop
80005d80:	d7 03       	nop
80005d82:	d7 03       	nop
80005d84:	d7 03       	nop
80005d86:	d7 03       	nop
80005d88:	d7 03       	nop
80005d8a:	d7 03       	nop
80005d8c:	d7 03       	nop
80005d8e:	d7 03       	nop
80005d90:	d7 03       	nop
80005d92:	d7 03       	nop
80005d94:	d7 03       	nop
80005d96:	d7 03       	nop
80005d98:	d7 03       	nop
80005d9a:	d7 03       	nop
80005d9c:	d7 03       	nop
80005d9e:	d7 03       	nop
80005da0:	d7 03       	nop
80005da2:	d7 03       	nop
80005da4:	d7 03       	nop
80005da6:	d7 03       	nop
80005da8:	d7 03       	nop
80005daa:	d7 03       	nop
80005dac:	d7 03       	nop
80005dae:	d7 03       	nop
80005db0:	d7 03       	nop
80005db2:	d7 03       	nop
80005db4:	d7 03       	nop
80005db6:	d7 03       	nop
80005db8:	d7 03       	nop
80005dba:	d7 03       	nop
80005dbc:	d7 03       	nop
80005dbe:	d7 03       	nop
80005dc0:	d7 03       	nop
80005dc2:	d7 03       	nop
80005dc4:	d7 03       	nop
80005dc6:	d7 03       	nop
80005dc8:	d7 03       	nop
80005dca:	d7 03       	nop
80005dcc:	d7 03       	nop
80005dce:	d7 03       	nop
80005dd0:	d7 03       	nop
80005dd2:	d7 03       	nop
80005dd4:	d7 03       	nop
80005dd6:	d7 03       	nop
80005dd8:	d7 03       	nop
80005dda:	d7 03       	nop
80005ddc:	d7 03       	nop
80005dde:	d7 03       	nop
80005de0:	d7 03       	nop
80005de2:	d7 03       	nop
80005de4:	d7 03       	nop
80005de6:	d7 03       	nop
80005de8:	d7 03       	nop
80005dea:	d7 03       	nop
80005dec:	d7 03       	nop
80005dee:	d7 03       	nop
80005df0:	d7 03       	nop
80005df2:	d7 03       	nop
80005df4:	d7 03       	nop
80005df6:	d7 03       	nop
80005df8:	d7 03       	nop
80005dfa:	d7 03       	nop
80005dfc:	d7 03       	nop
80005dfe:	d7 03       	nop
